
int.elf:     file format elf32-littlearm


Disassembly of section .text:

40008000 <_start>:
40008000:	ea00000d 	b	4000803c <reset>
40008004:	e59ff014 	ldr	pc, [pc, #20]	; 40008020 <_undefined_instruction>
40008008:	e59ff014 	ldr	pc, [pc, #20]	; 40008024 <_software_interrupt>
4000800c:	e59ff014 	ldr	pc, [pc, #20]	; 40008028 <_prefetch_abort>
40008010:	e59ff014 	ldr	pc, [pc, #20]	; 4000802c <_data_abort>
40008014:	e59ff014 	ldr	pc, [pc, #20]	; 40008030 <_not_used>
40008018:	e59ff014 	ldr	pc, [pc, #20]	; 40008034 <_irq>
4000801c:	e59ff014 	ldr	pc, [pc, #20]	; 40008038 <_fiq>

40008020 <_undefined_instruction>:
40008020:	40008020 	andmi	r8, r0, r0, lsr #32

40008024 <_software_interrupt>:
40008024:	40008024 	andmi	r8, r0, r4, lsr #32

40008028 <_prefetch_abort>:
40008028:	40008028 	andmi	r8, r0, r8, lsr #32

4000802c <_data_abort>:
4000802c:	4000802c 	andmi	r8, r0, ip, lsr #32

40008030 <_not_used>:
40008030:	40008030 	andmi	r8, r0, r0, lsr r0

40008034 <_irq>:
40008034:	400080e0 	andmi	r8, r0, r0, ror #1

40008038 <_fiq>:
40008038:	40008038 	andmi	r8, r0, r8, lsr r0

4000803c <reset>:
4000803c:	e59f00b0 	ldr	r0, [pc, #176]	; 400080f4 <stacktop+0x4>
40008040:	ee0c0f10 	mcr	15, 0, r0, cr12, cr0, {0}
40008044:	e10f0000 	mrs	r0, CPSR
40008048:	e3c0001f 	bic	r0, r0, #31
4000804c:	e38000d3 	orr	r0, r0, #211	; 0xd3
40008050:	e129f000 	msr	CPSR_fc, r0
40008054:	e3e0020f 	mvn	r0, #-268435456	; 0xf0000000
40008058:	ee010f50 	mcr	15, 0, r0, cr1, cr0, {2}
4000805c:	e3a00000 	mov	r0, #0
40008060:	ee080f17 	mcr	15, 0, r0, cr8, cr7, {0}
40008064:	ee070f15 	mcr	15, 0, r0, cr7, cr5, {0}
40008068:	e3a03101 	mov	r3, #1073741824	; 0x40000000
4000806c:	eee83a10 	vmsr	fpexc, r3
40008070:	ee110f10 	mrc	15, 0, r0, cr1, cr0, {0}
40008074:	e3c00a02 	bic	r0, r0, #8192	; 0x2000
40008078:	e3c00007 	bic	r0, r0, #7
4000807c:	e3800a01 	orr	r0, r0, #4096	; 0x1000
40008080:	e3800002 	orr	r0, r0, #2
40008084:	e3800b02 	orr	r0, r0, #2048	; 0x800
40008088:	ee010f10 	mcr	15, 0, r0, cr1, cr0, {0}

4000808c <init_stack>:
4000808c:	e59f005c 	ldr	r0, [pc, #92]	; 400080f0 <stacktop>
40008090:	e1a0d000 	mov	sp, r0
40008094:	e2400c02 	sub	r0, r0, #512	; 0x200
40008098:	e329f0d2 	msr	CPSR_fc, #210	; 0xd2
4000809c:	e1a0d000 	mov	sp, r0
400080a0:	e2400c02 	sub	r0, r0, #512	; 0x200
400080a4:	e329f0d1 	msr	CPSR_fc, #209	; 0xd1
400080a8:	e1a0d000 	mov	sp, r0
400080ac:	e2400000 	sub	r0, r0, #0
400080b0:	e329f0d7 	msr	CPSR_fc, #215	; 0xd7
400080b4:	e1a0d000 	mov	sp, r0
400080b8:	e2400000 	sub	r0, r0, #0
400080bc:	e329f0db 	msr	CPSR_fc, #219	; 0xdb
400080c0:	e1a0d000 	mov	sp, r0
400080c4:	e2400000 	sub	r0, r0, #0
400080c8:	e329f010 	msr	CPSR_fc, #16
400080cc:	e1a0d000 	mov	sp, r0
400080d0:	eb0006bc 	bl	40009bc8 <main>
400080d4:	eafffffe 	b	400080d4 <init_stack+0x48>
400080d8:	e1a00000 	nop			; (mov r0, r0)
400080dc:	e1a00000 	nop			; (mov r0, r0)

400080e0 <irq_handler>:
400080e0:	e24ee004 	sub	lr, lr, #4
400080e4:	e92d5fff 	push	{r0, r1, r2, r3, r4, r5, r6, r7, r8, r9, sl, fp, ip, lr}
400080e8:	eb000695 	bl	40009b44 <do_irq>
400080ec:	e8fd9fff 	ldm	sp!, {r0, r1, r2, r3, r4, r5, r6, r7, r8, r9, sl, fp, ip, pc}^

400080f0 <stacktop>:
400080f0:	4000aa64 	andmi	sl, r0, r4, ror #20
400080f4:	40008000 	andmi	r8, r0, r0
400080f8:	e1a00000 	nop			; (mov r0, r0)
400080fc:	e1a00000 	nop			; (mov r0, r0)

40008100 <__udivsi3>:
40008100:	e3510000 	cmp	r1, #0
40008104:	0a00001f 	beq	40008188 <Ldiv0>
40008108:	e3a03001 	mov	r3, #1
4000810c:	e3a02000 	mov	r2, #0
40008110:	e1500001 	cmp	r0, r1
40008114:	3a000019 	bcc	40008180 <Lgot_result>

40008118 <Loop1>:
40008118:	e3510201 	cmp	r1, #268435456	; 0x10000000
4000811c:	31510000 	cmpcc	r1, r0
40008120:	31a01201 	lslcc	r1, r1, #4
40008124:	31a03203 	lslcc	r3, r3, #4
40008128:	3afffffa 	bcc	40008118 <Loop1>

4000812c <Lbignum>:
4000812c:	e3510102 	cmp	r1, #-2147483648	; 0x80000000
40008130:	31510000 	cmpcc	r1, r0
40008134:	31a01081 	lslcc	r1, r1, #1
40008138:	31a03083 	lslcc	r3, r3, #1
4000813c:	3afffffa 	bcc	4000812c <Lbignum>

40008140 <Loop3>:
40008140:	e1500001 	cmp	r0, r1
40008144:	20400001 	subcs	r0, r0, r1
40008148:	21822003 	orrcs	r2, r2, r3
4000814c:	e15000a1 	cmp	r0, r1, lsr #1
40008150:	204000a1 	subcs	r0, r0, r1, lsr #1
40008154:	218220a3 	orrcs	r2, r2, r3, lsr #1
40008158:	e1500121 	cmp	r0, r1, lsr #2
4000815c:	20400121 	subcs	r0, r0, r1, lsr #2
40008160:	21822123 	orrcs	r2, r2, r3, lsr #2
40008164:	e15001a1 	cmp	r0, r1, lsr #3
40008168:	204001a1 	subcs	r0, r0, r1, lsr #3
4000816c:	218221a3 	orrcs	r2, r2, r3, lsr #3
40008170:	e3500000 	cmp	r0, #0
40008174:	11b03223 	lsrsne	r3, r3, #4
40008178:	11a01221 	lsrne	r1, r1, #4
4000817c:	1affffef 	bne	40008140 <Loop3>

40008180 <Lgot_result>:
40008180:	e1a00002 	mov	r0, r2
40008184:	e1a0f00e 	mov	pc, lr

40008188 <Ldiv0>:
40008188:	e52de004 	push	{lr}		; (str lr, [sp, #-4]!)
4000818c:	e3a00000 	mov	r0, #0
40008190:	e8bd8000 	pop	{pc}

40008194 <__umodsi3>:
40008194:	e3510000 	cmp	r1, #0
40008198:	0a000026 	beq	40008238 <Ldiv0>
4000819c:	e3a03001 	mov	r3, #1
400081a0:	e1500001 	cmp	r0, r1
400081a4:	31a0f00e 	movcc	pc, lr

400081a8 <Loop1>:
400081a8:	e3510201 	cmp	r1, #268435456	; 0x10000000
400081ac:	31510000 	cmpcc	r1, r0
400081b0:	31a01201 	lslcc	r1, r1, #4
400081b4:	31a03203 	lslcc	r3, r3, #4
400081b8:	3afffffa 	bcc	400081a8 <Loop1>

400081bc <Lbignum>:
400081bc:	e3510102 	cmp	r1, #-2147483648	; 0x80000000
400081c0:	31510000 	cmpcc	r1, r0
400081c4:	31a01081 	lslcc	r1, r1, #1
400081c8:	31a03083 	lslcc	r3, r3, #1
400081cc:	3afffffa 	bcc	400081bc <Lbignum>

400081d0 <Loop3>:
400081d0:	e3a02000 	mov	r2, #0
400081d4:	e1500001 	cmp	r0, r1
400081d8:	20400001 	subcs	r0, r0, r1
400081dc:	e15000a1 	cmp	r0, r1, lsr #1
400081e0:	204000a1 	subcs	r0, r0, r1, lsr #1
400081e4:	218220e3 	orrcs	r2, r2, r3, ror #1
400081e8:	e1500121 	cmp	r0, r1, lsr #2
400081ec:	20400121 	subcs	r0, r0, r1, lsr #2
400081f0:	21822163 	orrcs	r2, r2, r3, ror #2
400081f4:	e15001a1 	cmp	r0, r1, lsr #3
400081f8:	204001a1 	subcs	r0, r0, r1, lsr #3
400081fc:	218221e3 	orrcs	r2, r2, r3, ror #3
40008200:	e1a0c003 	mov	ip, r3
40008204:	e3500000 	cmp	r0, #0
40008208:	11b03223 	lsrsne	r3, r3, #4
4000820c:	11a01221 	lsrne	r1, r1, #4
40008210:	1affffee 	bne	400081d0 <Loop3>
40008214:	e212220e 	ands	r2, r2, #-536870912	; 0xe0000000
40008218:	01a0f00e 	moveq	pc, lr
4000821c:	e11201ec 	tst	r2, ip, ror #3
40008220:	108001a1 	addne	r0, r0, r1, lsr #3
40008224:	e112016c 	tst	r2, ip, ror #2
40008228:	10800121 	addne	r0, r0, r1, lsr #2
4000822c:	e11200ec 	tst	r2, ip, ror #1
40008230:	108000a1 	addne	r0, r0, r1, lsr #1
40008234:	e1a0f00e 	mov	pc, lr

40008238 <Ldiv0>:
40008238:	e52de004 	push	{lr}		; (str lr, [sp, #-4]!)
4000823c:	e3a00000 	mov	r0, #0
40008240:	e8bd8000 	pop	{pc}

40008244 <__toupper>:
40008244:	e52db004 	push	{fp}		; (str fp, [sp, #-4]!)
40008248:	e28db000 	add	fp, sp, #0
4000824c:	e24dd004 	sub	sp, sp, #4
40008250:	e1a03000 	mov	r3, r0
40008254:	e54b3004 	strb	r3, [fp, #-4]
40008258:	e55b3004 	ldrb	r3, [fp, #-4]
4000825c:	e59f202c 	ldr	r2, [pc, #44]	; 40008290 <__toupper+0x4c>
40008260:	e7d23003 	ldrb	r3, [r2, r3]
40008264:	e2033002 	and	r3, r3, #2
40008268:	e3530000 	cmp	r3, #0
4000826c:	0a000002 	beq	4000827c <__toupper+0x38>
40008270:	e55b3004 	ldrb	r3, [fp, #-4]
40008274:	e2433020 	sub	r3, r3, #32
40008278:	e54b3004 	strb	r3, [fp, #-4]
4000827c:	e55b3004 	ldrb	r3, [fp, #-4]
40008280:	e1a00003 	mov	r0, r3
40008284:	e28bd000 	add	sp, fp, #0
40008288:	e8bd0800 	pop	{fp}
4000828c:	e12fff1e 	bx	lr
40008290:	4000aa64 	andmi	sl, r0, r4, ror #20

40008294 <simple_strtoul>:
40008294:	e92d4800 	push	{fp, lr}
40008298:	e28db004 	add	fp, sp, #4
4000829c:	e24dd014 	sub	sp, sp, #20
400082a0:	e50b0010 	str	r0, [fp, #-16]
400082a4:	e50b1014 	str	r1, [fp, #-20]
400082a8:	e50b2018 	str	r2, [fp, #-24]
400082ac:	e3a03000 	mov	r3, #0
400082b0:	e50b3008 	str	r3, [fp, #-8]
400082b4:	e51b3010 	ldr	r3, [fp, #-16]
400082b8:	e5d33000 	ldrb	r3, [r3]
400082bc:	e3530030 	cmp	r3, #48	; 0x30
400082c0:	1a000018 	bne	40008328 <simple_strtoul+0x94>
400082c4:	e51b3010 	ldr	r3, [fp, #-16]
400082c8:	e2833001 	add	r3, r3, #1
400082cc:	e50b3010 	str	r3, [fp, #-16]
400082d0:	e51b3010 	ldr	r3, [fp, #-16]
400082d4:	e5d33000 	ldrb	r3, [r3]
400082d8:	e3530078 	cmp	r3, #120	; 0x78
400082dc:	1a00000c 	bne	40008314 <simple_strtoul+0x80>
400082e0:	e51b3010 	ldr	r3, [fp, #-16]
400082e4:	e2833001 	add	r3, r3, #1
400082e8:	e5d33000 	ldrb	r3, [r3]
400082ec:	e59f2144 	ldr	r2, [pc, #324]	; 40008438 <simple_strtoul+0x1a4>
400082f0:	e7d23003 	ldrb	r3, [r2, r3]
400082f4:	e2033044 	and	r3, r3, #68	; 0x44
400082f8:	e3530000 	cmp	r3, #0
400082fc:	0a000004 	beq	40008314 <simple_strtoul+0x80>
40008300:	e3a03010 	mov	r3, #16
40008304:	e50b3018 	str	r3, [fp, #-24]
40008308:	e51b3010 	ldr	r3, [fp, #-16]
4000830c:	e2833001 	add	r3, r3, #1
40008310:	e50b3010 	str	r3, [fp, #-16]
40008314:	e51b3018 	ldr	r3, [fp, #-24]
40008318:	e3530000 	cmp	r3, #0
4000831c:	1a000001 	bne	40008328 <simple_strtoul+0x94>
40008320:	e3a03008 	mov	r3, #8
40008324:	e50b3018 	str	r3, [fp, #-24]
40008328:	e51b3018 	ldr	r3, [fp, #-24]
4000832c:	e3530000 	cmp	r3, #0
40008330:	1a00000c 	bne	40008368 <simple_strtoul+0xd4>
40008334:	e3a0300a 	mov	r3, #10
40008338:	e50b3018 	str	r3, [fp, #-24]
4000833c:	ea000009 	b	40008368 <simple_strtoul+0xd4>
40008340:	e51b3008 	ldr	r3, [fp, #-8]
40008344:	e51b2018 	ldr	r2, [fp, #-24]
40008348:	e0020293 	mul	r2, r3, r2
4000834c:	e51b300c 	ldr	r3, [fp, #-12]
40008350:	e0823003 	add	r3, r2, r3
40008354:	e50b3008 	str	r3, [fp, #-8]
40008358:	e51b3010 	ldr	r3, [fp, #-16]
4000835c:	e2833001 	add	r3, r3, #1
40008360:	e50b3010 	str	r3, [fp, #-16]
40008364:	ea000000 	b	4000836c <simple_strtoul+0xd8>
40008368:	e1a00000 	nop			; (mov r0, r0)
4000836c:	e51b3010 	ldr	r3, [fp, #-16]
40008370:	e5d33000 	ldrb	r3, [r3]
40008374:	e59f20bc 	ldr	r2, [pc, #188]	; 40008438 <simple_strtoul+0x1a4>
40008378:	e7d23003 	ldrb	r3, [r2, r3]
4000837c:	e2033044 	and	r3, r3, #68	; 0x44
40008380:	e3530000 	cmp	r3, #0
40008384:	0a000020 	beq	4000840c <simple_strtoul+0x178>
40008388:	e51b3010 	ldr	r3, [fp, #-16]
4000838c:	e5d33000 	ldrb	r3, [r3]
40008390:	e59f20a0 	ldr	r2, [pc, #160]	; 40008438 <simple_strtoul+0x1a4>
40008394:	e7d23003 	ldrb	r3, [r2, r3]
40008398:	e2033004 	and	r3, r3, #4
4000839c:	e3530000 	cmp	r3, #0
400083a0:	0a000003 	beq	400083b4 <simple_strtoul+0x120>
400083a4:	e51b3010 	ldr	r3, [fp, #-16]
400083a8:	e5d33000 	ldrb	r3, [r3]
400083ac:	e2433030 	sub	r3, r3, #48	; 0x30
400083b0:	ea000010 	b	400083f8 <simple_strtoul+0x164>
400083b4:	e51b3010 	ldr	r3, [fp, #-16]
400083b8:	e5d33000 	ldrb	r3, [r3]
400083bc:	e59f2074 	ldr	r2, [pc, #116]	; 40008438 <simple_strtoul+0x1a4>
400083c0:	e7d23003 	ldrb	r3, [r2, r3]
400083c4:	e2033002 	and	r3, r3, #2
400083c8:	e3530000 	cmp	r3, #0
400083cc:	0a000006 	beq	400083ec <simple_strtoul+0x158>
400083d0:	e51b3010 	ldr	r3, [fp, #-16]
400083d4:	e5d33000 	ldrb	r3, [r3]
400083d8:	e1a00003 	mov	r0, r3
400083dc:	ebffff98 	bl	40008244 <__toupper>
400083e0:	e1a03000 	mov	r3, r0
400083e4:	e2433037 	sub	r3, r3, #55	; 0x37
400083e8:	ea000002 	b	400083f8 <simple_strtoul+0x164>
400083ec:	e51b3010 	ldr	r3, [fp, #-16]
400083f0:	e5d33000 	ldrb	r3, [r3]
400083f4:	e2433037 	sub	r3, r3, #55	; 0x37
400083f8:	e50b300c 	str	r3, [fp, #-12]
400083fc:	e51b200c 	ldr	r2, [fp, #-12]
40008400:	e51b3018 	ldr	r3, [fp, #-24]
40008404:	e1520003 	cmp	r2, r3
40008408:	3affffcc 	bcc	40008340 <simple_strtoul+0xac>
4000840c:	e51b3014 	ldr	r3, [fp, #-20]
40008410:	e3530000 	cmp	r3, #0
40008414:	0a000002 	beq	40008424 <simple_strtoul+0x190>
40008418:	e51b3014 	ldr	r3, [fp, #-20]
4000841c:	e51b2010 	ldr	r2, [fp, #-16]
40008420:	e5832000 	str	r2, [r3]
40008424:	e51b3008 	ldr	r3, [fp, #-8]
40008428:	e1a00003 	mov	r0, r3
4000842c:	e24bd004 	sub	sp, fp, #4
40008430:	e8bd4800 	pop	{fp, lr}
40008434:	e12fff1e 	bx	lr
40008438:	4000aa64 	andmi	sl, r0, r4, ror #20

4000843c <simple_strtol>:
4000843c:	e92d4800 	push	{fp, lr}
40008440:	e28db004 	add	fp, sp, #4
40008444:	e24dd00c 	sub	sp, sp, #12
40008448:	e50b0008 	str	r0, [fp, #-8]
4000844c:	e50b100c 	str	r1, [fp, #-12]
40008450:	e50b2010 	str	r2, [fp, #-16]
40008454:	e51b3008 	ldr	r3, [fp, #-8]
40008458:	e5d33000 	ldrb	r3, [r3]
4000845c:	e353002d 	cmp	r3, #45	; 0x2d
40008460:	1a000008 	bne	40008488 <simple_strtol+0x4c>
40008464:	e51b3008 	ldr	r3, [fp, #-8]
40008468:	e2833001 	add	r3, r3, #1
4000846c:	e1a00003 	mov	r0, r3
40008470:	e51b100c 	ldr	r1, [fp, #-12]
40008474:	e51b2010 	ldr	r2, [fp, #-16]
40008478:	ebffff85 	bl	40008294 <simple_strtoul>
4000847c:	e1a03000 	mov	r3, r0
40008480:	e2633000 	rsb	r3, r3, #0
40008484:	ea000004 	b	4000849c <simple_strtol+0x60>
40008488:	e51b0008 	ldr	r0, [fp, #-8]
4000848c:	e51b100c 	ldr	r1, [fp, #-12]
40008490:	e51b2010 	ldr	r2, [fp, #-16]
40008494:	ebffff7e 	bl	40008294 <simple_strtoul>
40008498:	e1a03000 	mov	r3, r0
4000849c:	e1a00003 	mov	r0, r3
400084a0:	e24bd004 	sub	sp, fp, #4
400084a4:	e8bd4800 	pop	{fp, lr}
400084a8:	e12fff1e 	bx	lr

400084ac <skip_atoi>:
400084ac:	e52db004 	push	{fp}		; (str fp, [sp, #-4]!)
400084b0:	e28db000 	add	fp, sp, #0
400084b4:	e24dd008 	sub	sp, sp, #8
400084b8:	e50b0008 	str	r0, [fp, #-8]
400084bc:	e3a03000 	mov	r3, #0
400084c0:	e50b3004 	str	r3, [fp, #-4]
400084c4:	ea00000e 	b	40008504 <skip_atoi+0x58>
400084c8:	e51b2004 	ldr	r2, [fp, #-4]
400084cc:	e1a03002 	mov	r3, r2
400084d0:	e1a03103 	lsl	r3, r3, #2
400084d4:	e0833002 	add	r3, r3, r2
400084d8:	e1a03083 	lsl	r3, r3, #1
400084dc:	e1a01003 	mov	r1, r3
400084e0:	e51b3008 	ldr	r3, [fp, #-8]
400084e4:	e5933000 	ldr	r3, [r3]
400084e8:	e5d32000 	ldrb	r2, [r3]
400084ec:	e0812002 	add	r2, r1, r2
400084f0:	e2422030 	sub	r2, r2, #48	; 0x30
400084f4:	e50b2004 	str	r2, [fp, #-4]
400084f8:	e2832001 	add	r2, r3, #1
400084fc:	e51b3008 	ldr	r3, [fp, #-8]
40008500:	e5832000 	str	r2, [r3]
40008504:	e51b3008 	ldr	r3, [fp, #-8]
40008508:	e5933000 	ldr	r3, [r3]
4000850c:	e5d33000 	ldrb	r3, [r3]
40008510:	e353002f 	cmp	r3, #47	; 0x2f
40008514:	9a000004 	bls	4000852c <skip_atoi+0x80>
40008518:	e51b3008 	ldr	r3, [fp, #-8]
4000851c:	e5933000 	ldr	r3, [r3]
40008520:	e5d33000 	ldrb	r3, [r3]
40008524:	e3530039 	cmp	r3, #57	; 0x39
40008528:	9affffe6 	bls	400084c8 <skip_atoi+0x1c>
4000852c:	e51b3004 	ldr	r3, [fp, #-4]
40008530:	e1a00003 	mov	r0, r3
40008534:	e28bd000 	add	sp, fp, #0
40008538:	e8bd0800 	pop	{fp}
4000853c:	e12fff1e 	bx	lr

40008540 <number>:
40008540:	e92d4800 	push	{fp, lr}
40008544:	e28db004 	add	fp, sp, #4
40008548:	e24dd068 	sub	sp, sp, #104	; 0x68
4000854c:	e50b0060 	str	r0, [fp, #-96]	; 0x60
40008550:	e50b1064 	str	r1, [fp, #-100]	; 0x64
40008554:	e50b2068 	str	r2, [fp, #-104]	; 0x68
40008558:	e50b306c 	str	r3, [fp, #-108]	; 0x6c
4000855c:	e59f346c 	ldr	r3, [pc, #1132]	; 400089d0 <number+0x490>
40008560:	e50b300c 	str	r3, [fp, #-12]
40008564:	e59b3008 	ldr	r3, [fp, #8]
40008568:	e2033040 	and	r3, r3, #64	; 0x40
4000856c:	e3530000 	cmp	r3, #0
40008570:	0a000001 	beq	4000857c <number+0x3c>
40008574:	e59f3458 	ldr	r3, [pc, #1112]	; 400089d4 <number+0x494>
40008578:	e50b300c 	str	r3, [fp, #-12]
4000857c:	e59b3008 	ldr	r3, [fp, #8]
40008580:	e2033010 	and	r3, r3, #16
40008584:	e3530000 	cmp	r3, #0
40008588:	0a000002 	beq	40008598 <number+0x58>
4000858c:	e59b3008 	ldr	r3, [fp, #8]
40008590:	e3c33001 	bic	r3, r3, #1
40008594:	e58b3008 	str	r3, [fp, #8]
40008598:	e51b3068 	ldr	r3, [fp, #-104]	; 0x68
4000859c:	e3530001 	cmp	r3, #1
400085a0:	9a000002 	bls	400085b0 <number+0x70>
400085a4:	e51b3068 	ldr	r3, [fp, #-104]	; 0x68
400085a8:	e3530024 	cmp	r3, #36	; 0x24
400085ac:	9a000001 	bls	400085b8 <number+0x78>
400085b0:	e3a03000 	mov	r3, #0
400085b4:	ea000101 	b	400089c0 <number+0x480>
400085b8:	e59b3008 	ldr	r3, [fp, #8]
400085bc:	e2033001 	and	r3, r3, #1
400085c0:	e20330ff 	and	r3, r3, #255	; 0xff
400085c4:	e3530000 	cmp	r3, #0
400085c8:	0a000001 	beq	400085d4 <number+0x94>
400085cc:	e3a03030 	mov	r3, #48	; 0x30
400085d0:	ea000000 	b	400085d8 <number+0x98>
400085d4:	e3a03020 	mov	r3, #32
400085d8:	e54b3011 	strb	r3, [fp, #-17]
400085dc:	e3a03000 	mov	r3, #0
400085e0:	e54b3005 	strb	r3, [fp, #-5]
400085e4:	e59b3008 	ldr	r3, [fp, #8]
400085e8:	e2033002 	and	r3, r3, #2
400085ec:	e3530000 	cmp	r3, #0
400085f0:	0a00001e 	beq	40008670 <number+0x130>
400085f4:	e51b3064 	ldr	r3, [fp, #-100]	; 0x64
400085f8:	e3530000 	cmp	r3, #0
400085fc:	aa000008 	bge	40008624 <number+0xe4>
40008600:	e3a0302d 	mov	r3, #45	; 0x2d
40008604:	e54b3005 	strb	r3, [fp, #-5]
40008608:	e51b3064 	ldr	r3, [fp, #-100]	; 0x64
4000860c:	e2633000 	rsb	r3, r3, #0
40008610:	e50b3064 	str	r3, [fp, #-100]	; 0x64
40008614:	e51b306c 	ldr	r3, [fp, #-108]	; 0x6c
40008618:	e2433001 	sub	r3, r3, #1
4000861c:	e50b306c 	str	r3, [fp, #-108]	; 0x6c
40008620:	ea000012 	b	40008670 <number+0x130>
40008624:	e59b3008 	ldr	r3, [fp, #8]
40008628:	e2033004 	and	r3, r3, #4
4000862c:	e3530000 	cmp	r3, #0
40008630:	0a000005 	beq	4000864c <number+0x10c>
40008634:	e3a0302b 	mov	r3, #43	; 0x2b
40008638:	e54b3005 	strb	r3, [fp, #-5]
4000863c:	e51b306c 	ldr	r3, [fp, #-108]	; 0x6c
40008640:	e2433001 	sub	r3, r3, #1
40008644:	e50b306c 	str	r3, [fp, #-108]	; 0x6c
40008648:	ea000008 	b	40008670 <number+0x130>
4000864c:	e59b3008 	ldr	r3, [fp, #8]
40008650:	e2033008 	and	r3, r3, #8
40008654:	e3530000 	cmp	r3, #0
40008658:	0a000004 	beq	40008670 <number+0x130>
4000865c:	e3a03020 	mov	r3, #32
40008660:	e54b3005 	strb	r3, [fp, #-5]
40008664:	e51b306c 	ldr	r3, [fp, #-108]	; 0x6c
40008668:	e2433001 	sub	r3, r3, #1
4000866c:	e50b306c 	str	r3, [fp, #-108]	; 0x6c
40008670:	e59b3008 	ldr	r3, [fp, #8]
40008674:	e2033020 	and	r3, r3, #32
40008678:	e3530000 	cmp	r3, #0
4000867c:	0a00000c 	beq	400086b4 <number+0x174>
40008680:	e51b3068 	ldr	r3, [fp, #-104]	; 0x68
40008684:	e3530010 	cmp	r3, #16
40008688:	1a000003 	bne	4000869c <number+0x15c>
4000868c:	e51b306c 	ldr	r3, [fp, #-108]	; 0x6c
40008690:	e2433002 	sub	r3, r3, #2
40008694:	e50b306c 	str	r3, [fp, #-108]	; 0x6c
40008698:	ea000005 	b	400086b4 <number+0x174>
4000869c:	e51b3068 	ldr	r3, [fp, #-104]	; 0x68
400086a0:	e3530008 	cmp	r3, #8
400086a4:	1a000002 	bne	400086b4 <number+0x174>
400086a8:	e51b306c 	ldr	r3, [fp, #-108]	; 0x6c
400086ac:	e2433001 	sub	r3, r3, #1
400086b0:	e50b306c 	str	r3, [fp, #-108]	; 0x6c
400086b4:	e3a03000 	mov	r3, #0
400086b8:	e50b3010 	str	r3, [fp, #-16]
400086bc:	e51b3064 	ldr	r3, [fp, #-100]	; 0x64
400086c0:	e3530000 	cmp	r3, #0
400086c4:	1a000027 	bne	40008768 <number+0x228>
400086c8:	e3e03057 	mvn	r3, #87	; 0x57
400086cc:	e51b2010 	ldr	r2, [fp, #-16]
400086d0:	e24b0004 	sub	r0, fp, #4
400086d4:	e0802002 	add	r2, r0, r2
400086d8:	e0823003 	add	r3, r2, r3
400086dc:	e3a02030 	mov	r2, #48	; 0x30
400086e0:	e5c32000 	strb	r2, [r3]
400086e4:	e51b3010 	ldr	r3, [fp, #-16]
400086e8:	e2833001 	add	r3, r3, #1
400086ec:	e50b3010 	str	r3, [fp, #-16]
400086f0:	ea00001f 	b	40008774 <number+0x234>
400086f4:	e51b2010 	ldr	r2, [fp, #-16]
400086f8:	e59b3004 	ldr	r3, [fp, #4]
400086fc:	e1520003 	cmp	r2, r3
40008700:	da000018 	ble	40008768 <number+0x228>
40008704:	e51b3064 	ldr	r3, [fp, #-100]	; 0x64
40008708:	e1a00003 	mov	r0, r3
4000870c:	e51b1068 	ldr	r1, [fp, #-104]	; 0x68
40008710:	ebfffe9f 	bl	40008194 <__umodsi3>
40008714:	e1a03000 	mov	r3, r0
40008718:	e50b3018 	str	r3, [fp, #-24]
4000871c:	e51b3064 	ldr	r3, [fp, #-100]	; 0x64
40008720:	e1a00003 	mov	r0, r3
40008724:	e51b1068 	ldr	r1, [fp, #-104]	; 0x68
40008728:	ebfffe74 	bl	40008100 <__udivsi3>
4000872c:	e1a03000 	mov	r3, r0
40008730:	e50b3064 	str	r3, [fp, #-100]	; 0x64
40008734:	e51b3018 	ldr	r3, [fp, #-24]
40008738:	e51b200c 	ldr	r2, [fp, #-12]
4000873c:	e0823003 	add	r3, r2, r3
40008740:	e5d32000 	ldrb	r2, [r3]
40008744:	e3e03057 	mvn	r3, #87	; 0x57
40008748:	e51b1010 	ldr	r1, [fp, #-16]
4000874c:	e24b0004 	sub	r0, fp, #4
40008750:	e0801001 	add	r1, r0, r1
40008754:	e0813003 	add	r3, r1, r3
40008758:	e5c32000 	strb	r2, [r3]
4000875c:	e51b3010 	ldr	r3, [fp, #-16]
40008760:	e2833001 	add	r3, r3, #1
40008764:	e50b3010 	str	r3, [fp, #-16]
40008768:	e51b3064 	ldr	r3, [fp, #-100]	; 0x64
4000876c:	e3530000 	cmp	r3, #0
40008770:	1affffdf 	bne	400086f4 <number+0x1b4>
40008774:	e51b3010 	ldr	r3, [fp, #-16]
40008778:	e58b3004 	str	r3, [fp, #4]
4000877c:	e51b206c 	ldr	r2, [fp, #-108]	; 0x6c
40008780:	e59b3004 	ldr	r3, [fp, #4]
40008784:	e0633002 	rsb	r3, r3, r2
40008788:	e50b306c 	str	r3, [fp, #-108]	; 0x6c
4000878c:	e59b3008 	ldr	r3, [fp, #8]
40008790:	e2033011 	and	r3, r3, #17
40008794:	e3530000 	cmp	r3, #0
40008798:	1a000010 	bne	400087e0 <number+0x2a0>
4000879c:	ea000005 	b	400087b8 <number+0x278>
400087a0:	e51b3060 	ldr	r3, [fp, #-96]	; 0x60
400087a4:	e3a02020 	mov	r2, #32
400087a8:	e5c32000 	strb	r2, [r3]
400087ac:	e51b3060 	ldr	r3, [fp, #-96]	; 0x60
400087b0:	e2833001 	add	r3, r3, #1
400087b4:	e50b3060 	str	r3, [fp, #-96]	; 0x60
400087b8:	e51b306c 	ldr	r3, [fp, #-108]	; 0x6c
400087bc:	e3530000 	cmp	r3, #0
400087c0:	d3a03000 	movle	r3, #0
400087c4:	c3a03001 	movgt	r3, #1
400087c8:	e20330ff 	and	r3, r3, #255	; 0xff
400087cc:	e51b206c 	ldr	r2, [fp, #-108]	; 0x6c
400087d0:	e2422001 	sub	r2, r2, #1
400087d4:	e50b206c 	str	r2, [fp, #-108]	; 0x6c
400087d8:	e3530000 	cmp	r3, #0
400087dc:	1affffef 	bne	400087a0 <number+0x260>
400087e0:	e55b3005 	ldrb	r3, [fp, #-5]
400087e4:	e3530000 	cmp	r3, #0
400087e8:	0a000005 	beq	40008804 <number+0x2c4>
400087ec:	e51b3060 	ldr	r3, [fp, #-96]	; 0x60
400087f0:	e55b2005 	ldrb	r2, [fp, #-5]
400087f4:	e5c32000 	strb	r2, [r3]
400087f8:	e51b3060 	ldr	r3, [fp, #-96]	; 0x60
400087fc:	e2833001 	add	r3, r3, #1
40008800:	e50b3060 	str	r3, [fp, #-96]	; 0x60
40008804:	e59b3008 	ldr	r3, [fp, #8]
40008808:	e2033020 	and	r3, r3, #32
4000880c:	e3530000 	cmp	r3, #0
40008810:	0a000019 	beq	4000887c <number+0x33c>
40008814:	e51b3068 	ldr	r3, [fp, #-104]	; 0x68
40008818:	e3530008 	cmp	r3, #8
4000881c:	1a000006 	bne	4000883c <number+0x2fc>
40008820:	e51b3060 	ldr	r3, [fp, #-96]	; 0x60
40008824:	e3a02030 	mov	r2, #48	; 0x30
40008828:	e5c32000 	strb	r2, [r3]
4000882c:	e51b3060 	ldr	r3, [fp, #-96]	; 0x60
40008830:	e2833001 	add	r3, r3, #1
40008834:	e50b3060 	str	r3, [fp, #-96]	; 0x60
40008838:	ea00000f 	b	4000887c <number+0x33c>
4000883c:	e51b3068 	ldr	r3, [fp, #-104]	; 0x68
40008840:	e3530010 	cmp	r3, #16
40008844:	1a00000c 	bne	4000887c <number+0x33c>
40008848:	e51b3060 	ldr	r3, [fp, #-96]	; 0x60
4000884c:	e3a02030 	mov	r2, #48	; 0x30
40008850:	e5c32000 	strb	r2, [r3]
40008854:	e51b3060 	ldr	r3, [fp, #-96]	; 0x60
40008858:	e2833001 	add	r3, r3, #1
4000885c:	e50b3060 	str	r3, [fp, #-96]	; 0x60
40008860:	e51b300c 	ldr	r3, [fp, #-12]
40008864:	e5d32021 	ldrb	r2, [r3, #33]	; 0x21
40008868:	e51b3060 	ldr	r3, [fp, #-96]	; 0x60
4000886c:	e5c32000 	strb	r2, [r3]
40008870:	e51b3060 	ldr	r3, [fp, #-96]	; 0x60
40008874:	e2833001 	add	r3, r3, #1
40008878:	e50b3060 	str	r3, [fp, #-96]	; 0x60
4000887c:	e59b3008 	ldr	r3, [fp, #8]
40008880:	e2033010 	and	r3, r3, #16
40008884:	e3530000 	cmp	r3, #0
40008888:	1a000018 	bne	400088f0 <number+0x3b0>
4000888c:	ea000005 	b	400088a8 <number+0x368>
40008890:	e51b3060 	ldr	r3, [fp, #-96]	; 0x60
40008894:	e55b2011 	ldrb	r2, [fp, #-17]
40008898:	e5c32000 	strb	r2, [r3]
4000889c:	e51b3060 	ldr	r3, [fp, #-96]	; 0x60
400088a0:	e2833001 	add	r3, r3, #1
400088a4:	e50b3060 	str	r3, [fp, #-96]	; 0x60
400088a8:	e51b306c 	ldr	r3, [fp, #-108]	; 0x6c
400088ac:	e3530000 	cmp	r3, #0
400088b0:	d3a03000 	movle	r3, #0
400088b4:	c3a03001 	movgt	r3, #1
400088b8:	e20330ff 	and	r3, r3, #255	; 0xff
400088bc:	e51b206c 	ldr	r2, [fp, #-108]	; 0x6c
400088c0:	e2422001 	sub	r2, r2, #1
400088c4:	e50b206c 	str	r2, [fp, #-108]	; 0x6c
400088c8:	e3530000 	cmp	r3, #0
400088cc:	1affffef 	bne	40008890 <number+0x350>
400088d0:	ea000006 	b	400088f0 <number+0x3b0>
400088d4:	e51b3060 	ldr	r3, [fp, #-96]	; 0x60
400088d8:	e3a02030 	mov	r2, #48	; 0x30
400088dc:	e5c32000 	strb	r2, [r3]
400088e0:	e51b3060 	ldr	r3, [fp, #-96]	; 0x60
400088e4:	e2833001 	add	r3, r3, #1
400088e8:	e50b3060 	str	r3, [fp, #-96]	; 0x60
400088ec:	ea000000 	b	400088f4 <number+0x3b4>
400088f0:	e1a00000 	nop			; (mov r0, r0)
400088f4:	e59b2004 	ldr	r2, [fp, #4]
400088f8:	e51b3010 	ldr	r3, [fp, #-16]
400088fc:	e1520003 	cmp	r2, r3
40008900:	d3a03000 	movle	r3, #0
40008904:	c3a03001 	movgt	r3, #1
40008908:	e20330ff 	and	r3, r3, #255	; 0xff
4000890c:	e59b2004 	ldr	r2, [fp, #4]
40008910:	e2422001 	sub	r2, r2, #1
40008914:	e58b2004 	str	r2, [fp, #4]
40008918:	e3530000 	cmp	r3, #0
4000891c:	1affffec 	bne	400088d4 <number+0x394>
40008920:	ea00000a 	b	40008950 <number+0x410>
40008924:	e3e03057 	mvn	r3, #87	; 0x57
40008928:	e51b2010 	ldr	r2, [fp, #-16]
4000892c:	e24b1004 	sub	r1, fp, #4
40008930:	e0812002 	add	r2, r1, r2
40008934:	e0823003 	add	r3, r2, r3
40008938:	e5d32000 	ldrb	r2, [r3]
4000893c:	e51b3060 	ldr	r3, [fp, #-96]	; 0x60
40008940:	e5c32000 	strb	r2, [r3]
40008944:	e51b3060 	ldr	r3, [fp, #-96]	; 0x60
40008948:	e2833001 	add	r3, r3, #1
4000894c:	e50b3060 	str	r3, [fp, #-96]	; 0x60
40008950:	e51b3010 	ldr	r3, [fp, #-16]
40008954:	e3530000 	cmp	r3, #0
40008958:	d3a03000 	movle	r3, #0
4000895c:	c3a03001 	movgt	r3, #1
40008960:	e20330ff 	and	r3, r3, #255	; 0xff
40008964:	e51b2010 	ldr	r2, [fp, #-16]
40008968:	e2422001 	sub	r2, r2, #1
4000896c:	e50b2010 	str	r2, [fp, #-16]
40008970:	e3530000 	cmp	r3, #0
40008974:	1affffea 	bne	40008924 <number+0x3e4>
40008978:	ea000005 	b	40008994 <number+0x454>
4000897c:	e51b3060 	ldr	r3, [fp, #-96]	; 0x60
40008980:	e3a02020 	mov	r2, #32
40008984:	e5c32000 	strb	r2, [r3]
40008988:	e51b3060 	ldr	r3, [fp, #-96]	; 0x60
4000898c:	e2833001 	add	r3, r3, #1
40008990:	e50b3060 	str	r3, [fp, #-96]	; 0x60
40008994:	e51b306c 	ldr	r3, [fp, #-108]	; 0x6c
40008998:	e3530000 	cmp	r3, #0
4000899c:	d3a03000 	movle	r3, #0
400089a0:	c3a03001 	movgt	r3, #1
400089a4:	e20330ff 	and	r3, r3, #255	; 0xff
400089a8:	e51b206c 	ldr	r2, [fp, #-108]	; 0x6c
400089ac:	e2422001 	sub	r2, r2, #1
400089b0:	e50b206c 	str	r2, [fp, #-108]	; 0x6c
400089b4:	e3530000 	cmp	r3, #0
400089b8:	1affffef 	bne	4000897c <number+0x43c>
400089bc:	e51b3060 	ldr	r3, [fp, #-96]	; 0x60
400089c0:	e1a00003 	mov	r0, r3
400089c4:	e24bd004 	sub	sp, fp, #4
400089c8:	e8bd4800 	pop	{fp, lr}
400089cc:	e12fff1e 	bx	lr
400089d0:	4000a0c4 	andmi	sl, r0, r4, asr #1
400089d4:	4000a0ec 	andmi	sl, r0, ip, ror #1

400089d8 <strnlen>:
400089d8:	e52db004 	push	{fp}		; (str fp, [sp, #-4]!)
400089dc:	e28db000 	add	fp, sp, #0
400089e0:	e24dd00c 	sub	sp, sp, #12
400089e4:	e50b0008 	str	r0, [fp, #-8]
400089e8:	e50b100c 	str	r1, [fp, #-12]
400089ec:	e51b3008 	ldr	r3, [fp, #-8]
400089f0:	e50b3004 	str	r3, [fp, #-4]
400089f4:	ea000002 	b	40008a04 <strnlen+0x2c>
400089f8:	e51b3004 	ldr	r3, [fp, #-4]
400089fc:	e2833001 	add	r3, r3, #1
40008a00:	e50b3004 	str	r3, [fp, #-4]
40008a04:	e51b300c 	ldr	r3, [fp, #-12]
40008a08:	e3530000 	cmp	r3, #0
40008a0c:	03a03000 	moveq	r3, #0
40008a10:	13a03001 	movne	r3, #1
40008a14:	e20330ff 	and	r3, r3, #255	; 0xff
40008a18:	e51b200c 	ldr	r2, [fp, #-12]
40008a1c:	e2422001 	sub	r2, r2, #1
40008a20:	e50b200c 	str	r2, [fp, #-12]
40008a24:	e3530000 	cmp	r3, #0
40008a28:	0a000003 	beq	40008a3c <strnlen+0x64>
40008a2c:	e51b3004 	ldr	r3, [fp, #-4]
40008a30:	e5d33000 	ldrb	r3, [r3]
40008a34:	e3530000 	cmp	r3, #0
40008a38:	1affffee 	bne	400089f8 <strnlen+0x20>
40008a3c:	e51b2004 	ldr	r2, [fp, #-4]
40008a40:	e51b3008 	ldr	r3, [fp, #-8]
40008a44:	e0633002 	rsb	r3, r3, r2
40008a48:	e1a00003 	mov	r0, r3
40008a4c:	e28bd000 	add	sp, fp, #0
40008a50:	e8bd0800 	pop	{fp}
40008a54:	e12fff1e 	bx	lr

40008a58 <vsprintf>:
40008a58:	e92d4800 	push	{fp, lr}
40008a5c:	e28db004 	add	fp, sp, #4
40008a60:	e24dd044 	sub	sp, sp, #68	; 0x44
40008a64:	e50b0038 	str	r0, [fp, #-56]	; 0x38
40008a68:	e50b103c 	str	r1, [fp, #-60]	; 0x3c
40008a6c:	e50b2040 	str	r2, [fp, #-64]	; 0x40
40008a70:	e51b3038 	ldr	r3, [fp, #-56]	; 0x38
40008a74:	e50b3014 	str	r3, [fp, #-20]
40008a78:	ea000235 	b	40009354 <vsprintf+0x8fc>
40008a7c:	e51b303c 	ldr	r3, [fp, #-60]	; 0x3c
40008a80:	e5d33000 	ldrb	r3, [r3]
40008a84:	e3530025 	cmp	r3, #37	; 0x25
40008a88:	0a000007 	beq	40008aac <vsprintf+0x54>
40008a8c:	e51b303c 	ldr	r3, [fp, #-60]	; 0x3c
40008a90:	e5d32000 	ldrb	r2, [r3]
40008a94:	e51b3014 	ldr	r3, [fp, #-20]
40008a98:	e5c32000 	strb	r2, [r3]
40008a9c:	e51b3014 	ldr	r3, [fp, #-20]
40008aa0:	e2833001 	add	r3, r3, #1
40008aa4:	e50b3014 	str	r3, [fp, #-20]
40008aa8:	ea000226 	b	40009348 <vsprintf+0x8f0>
40008aac:	e3a03000 	mov	r3, #0
40008ab0:	e50b301c 	str	r3, [fp, #-28]
40008ab4:	e51b303c 	ldr	r3, [fp, #-60]	; 0x3c
40008ab8:	e2833001 	add	r3, r3, #1
40008abc:	e50b303c 	str	r3, [fp, #-60]	; 0x3c
40008ac0:	e51b303c 	ldr	r3, [fp, #-60]	; 0x3c
40008ac4:	e5d33000 	ldrb	r3, [r3]
40008ac8:	e2433020 	sub	r3, r3, #32
40008acc:	e3530010 	cmp	r3, #16
40008ad0:	979ff103 	ldrls	pc, [pc, r3, lsl #2]
40008ad4:	ea000024 	b	40008b6c <vsprintf+0x114>
40008ad8:	40008b3c 	andmi	r8, r0, ip, lsr fp
40008adc:	40008b6c 	andmi	r8, r0, ip, ror #22
40008ae0:	40008b6c 	andmi	r8, r0, ip, ror #22
40008ae4:	40008b4c 	andmi	r8, r0, ip, asr #22
40008ae8:	40008b6c 	andmi	r8, r0, ip, ror #22
40008aec:	40008b6c 	andmi	r8, r0, ip, ror #22
40008af0:	40008b6c 	andmi	r8, r0, ip, ror #22
40008af4:	40008b6c 	andmi	r8, r0, ip, ror #22
40008af8:	40008b6c 	andmi	r8, r0, ip, ror #22
40008afc:	40008b6c 	andmi	r8, r0, ip, ror #22
40008b00:	40008b6c 	andmi	r8, r0, ip, ror #22
40008b04:	40008b2c 	andmi	r8, r0, ip, lsr #22
40008b08:	40008b6c 	andmi	r8, r0, ip, ror #22
40008b0c:	40008b1c 	andmi	r8, r0, ip, lsl fp
40008b10:	40008b6c 	andmi	r8, r0, ip, ror #22
40008b14:	40008b6c 	andmi	r8, r0, ip, ror #22
40008b18:	40008b5c 	andmi	r8, r0, ip, asr fp
40008b1c:	e51b301c 	ldr	r3, [fp, #-28]
40008b20:	e3833010 	orr	r3, r3, #16
40008b24:	e50b301c 	str	r3, [fp, #-28]
40008b28:	eaffffe1 	b	40008ab4 <vsprintf+0x5c>
40008b2c:	e51b301c 	ldr	r3, [fp, #-28]
40008b30:	e3833004 	orr	r3, r3, #4
40008b34:	e50b301c 	str	r3, [fp, #-28]
40008b38:	eaffffdd 	b	40008ab4 <vsprintf+0x5c>
40008b3c:	e51b301c 	ldr	r3, [fp, #-28]
40008b40:	e3833008 	orr	r3, r3, #8
40008b44:	e50b301c 	str	r3, [fp, #-28]
40008b48:	eaffffd9 	b	40008ab4 <vsprintf+0x5c>
40008b4c:	e51b301c 	ldr	r3, [fp, #-28]
40008b50:	e3833020 	orr	r3, r3, #32
40008b54:	e50b301c 	str	r3, [fp, #-28]
40008b58:	eaffffd5 	b	40008ab4 <vsprintf+0x5c>
40008b5c:	e51b301c 	ldr	r3, [fp, #-28]
40008b60:	e3833001 	orr	r3, r3, #1
40008b64:	e50b301c 	str	r3, [fp, #-28]
40008b68:	eaffffd1 	b	40008ab4 <vsprintf+0x5c>
40008b6c:	e3e03000 	mvn	r3, #0
40008b70:	e50b3020 	str	r3, [fp, #-32]
40008b74:	e51b303c 	ldr	r3, [fp, #-60]	; 0x3c
40008b78:	e5d33000 	ldrb	r3, [r3]
40008b7c:	e353002f 	cmp	r3, #47	; 0x2f
40008b80:	9a000008 	bls	40008ba8 <vsprintf+0x150>
40008b84:	e51b303c 	ldr	r3, [fp, #-60]	; 0x3c
40008b88:	e5d33000 	ldrb	r3, [r3]
40008b8c:	e3530039 	cmp	r3, #57	; 0x39
40008b90:	8a000004 	bhi	40008ba8 <vsprintf+0x150>
40008b94:	e24b303c 	sub	r3, fp, #60	; 0x3c
40008b98:	e1a00003 	mov	r0, r3
40008b9c:	ebfffe42 	bl	400084ac <skip_atoi>
40008ba0:	e50b0020 	str	r0, [fp, #-32]
40008ba4:	ea000014 	b	40008bfc <vsprintf+0x1a4>
40008ba8:	e51b303c 	ldr	r3, [fp, #-60]	; 0x3c
40008bac:	e5d33000 	ldrb	r3, [r3]
40008bb0:	e353002a 	cmp	r3, #42	; 0x2a
40008bb4:	1a000010 	bne	40008bfc <vsprintf+0x1a4>
40008bb8:	e51b303c 	ldr	r3, [fp, #-60]	; 0x3c
40008bbc:	e2833001 	add	r3, r3, #1
40008bc0:	e50b303c 	str	r3, [fp, #-60]	; 0x3c
40008bc4:	e51b3040 	ldr	r3, [fp, #-64]	; 0x40
40008bc8:	e2832004 	add	r2, r3, #4
40008bcc:	e50b2040 	str	r2, [fp, #-64]	; 0x40
40008bd0:	e5933000 	ldr	r3, [r3]
40008bd4:	e50b3020 	str	r3, [fp, #-32]
40008bd8:	e51b3020 	ldr	r3, [fp, #-32]
40008bdc:	e3530000 	cmp	r3, #0
40008be0:	aa000005 	bge	40008bfc <vsprintf+0x1a4>
40008be4:	e51b3020 	ldr	r3, [fp, #-32]
40008be8:	e2633000 	rsb	r3, r3, #0
40008bec:	e50b3020 	str	r3, [fp, #-32]
40008bf0:	e51b301c 	ldr	r3, [fp, #-28]
40008bf4:	e3833010 	orr	r3, r3, #16
40008bf8:	e50b301c 	str	r3, [fp, #-28]
40008bfc:	e3e03000 	mvn	r3, #0
40008c00:	e50b3024 	str	r3, [fp, #-36]	; 0x24
40008c04:	e51b303c 	ldr	r3, [fp, #-60]	; 0x3c
40008c08:	e5d33000 	ldrb	r3, [r3]
40008c0c:	e353002e 	cmp	r3, #46	; 0x2e
40008c10:	1a000020 	bne	40008c98 <vsprintf+0x240>
40008c14:	e51b303c 	ldr	r3, [fp, #-60]	; 0x3c
40008c18:	e2833001 	add	r3, r3, #1
40008c1c:	e50b303c 	str	r3, [fp, #-60]	; 0x3c
40008c20:	e51b303c 	ldr	r3, [fp, #-60]	; 0x3c
40008c24:	e5d33000 	ldrb	r3, [r3]
40008c28:	e353002f 	cmp	r3, #47	; 0x2f
40008c2c:	9a000008 	bls	40008c54 <vsprintf+0x1fc>
40008c30:	e51b303c 	ldr	r3, [fp, #-60]	; 0x3c
40008c34:	e5d33000 	ldrb	r3, [r3]
40008c38:	e3530039 	cmp	r3, #57	; 0x39
40008c3c:	8a000004 	bhi	40008c54 <vsprintf+0x1fc>
40008c40:	e24b303c 	sub	r3, fp, #60	; 0x3c
40008c44:	e1a00003 	mov	r0, r3
40008c48:	ebfffe17 	bl	400084ac <skip_atoi>
40008c4c:	e50b0024 	str	r0, [fp, #-36]	; 0x24
40008c50:	ea00000b 	b	40008c84 <vsprintf+0x22c>
40008c54:	e51b303c 	ldr	r3, [fp, #-60]	; 0x3c
40008c58:	e5d33000 	ldrb	r3, [r3]
40008c5c:	e353002a 	cmp	r3, #42	; 0x2a
40008c60:	1a000007 	bne	40008c84 <vsprintf+0x22c>
40008c64:	e51b303c 	ldr	r3, [fp, #-60]	; 0x3c
40008c68:	e2833001 	add	r3, r3, #1
40008c6c:	e50b303c 	str	r3, [fp, #-60]	; 0x3c
40008c70:	e51b3040 	ldr	r3, [fp, #-64]	; 0x40
40008c74:	e2832004 	add	r2, r3, #4
40008c78:	e50b2040 	str	r2, [fp, #-64]	; 0x40
40008c7c:	e5933000 	ldr	r3, [r3]
40008c80:	e50b3024 	str	r3, [fp, #-36]	; 0x24
40008c84:	e51b3024 	ldr	r3, [fp, #-36]	; 0x24
40008c88:	e3530000 	cmp	r3, #0
40008c8c:	aa000001 	bge	40008c98 <vsprintf+0x240>
40008c90:	e3a03000 	mov	r3, #0
40008c94:	e50b3024 	str	r3, [fp, #-36]	; 0x24
40008c98:	e3e03000 	mvn	r3, #0
40008c9c:	e50b3028 	str	r3, [fp, #-40]	; 0x28
40008ca0:	e51b303c 	ldr	r3, [fp, #-60]	; 0x3c
40008ca4:	e5d33000 	ldrb	r3, [r3]
40008ca8:	e3530068 	cmp	r3, #104	; 0x68
40008cac:	0a000017 	beq	40008d10 <vsprintf+0x2b8>
40008cb0:	e51b303c 	ldr	r3, [fp, #-60]	; 0x3c
40008cb4:	e5d33000 	ldrb	r3, [r3]
40008cb8:	e353006c 	cmp	r3, #108	; 0x6c
40008cbc:	0a000013 	beq	40008d10 <vsprintf+0x2b8>
40008cc0:	e51b303c 	ldr	r3, [fp, #-60]	; 0x3c
40008cc4:	e5d33000 	ldrb	r3, [r3]
40008cc8:	e353004c 	cmp	r3, #76	; 0x4c
40008ccc:	0a00000f 	beq	40008d10 <vsprintf+0x2b8>
40008cd0:	e51b303c 	ldr	r3, [fp, #-60]	; 0x3c
40008cd4:	e5d33000 	ldrb	r3, [r3]
40008cd8:	e353005a 	cmp	r3, #90	; 0x5a
40008cdc:	0a00000b 	beq	40008d10 <vsprintf+0x2b8>
40008ce0:	e51b303c 	ldr	r3, [fp, #-60]	; 0x3c
40008ce4:	e5d33000 	ldrb	r3, [r3]
40008ce8:	e353007a 	cmp	r3, #122	; 0x7a
40008cec:	0a000007 	beq	40008d10 <vsprintf+0x2b8>
40008cf0:	e51b303c 	ldr	r3, [fp, #-60]	; 0x3c
40008cf4:	e5d33000 	ldrb	r3, [r3]
40008cf8:	e3530074 	cmp	r3, #116	; 0x74
40008cfc:	0a000003 	beq	40008d10 <vsprintf+0x2b8>
40008d00:	e51b303c 	ldr	r3, [fp, #-60]	; 0x3c
40008d04:	e5d33000 	ldrb	r3, [r3]
40008d08:	e3530071 	cmp	r3, #113	; 0x71
40008d0c:	1a000012 	bne	40008d5c <vsprintf+0x304>
40008d10:	e51b303c 	ldr	r3, [fp, #-60]	; 0x3c
40008d14:	e5d33000 	ldrb	r3, [r3]
40008d18:	e50b3028 	str	r3, [fp, #-40]	; 0x28
40008d1c:	e51b3028 	ldr	r3, [fp, #-40]	; 0x28
40008d20:	e353006c 	cmp	r3, #108	; 0x6c
40008d24:	1a000009 	bne	40008d50 <vsprintf+0x2f8>
40008d28:	e51b303c 	ldr	r3, [fp, #-60]	; 0x3c
40008d2c:	e2833001 	add	r3, r3, #1
40008d30:	e5d33000 	ldrb	r3, [r3]
40008d34:	e353006c 	cmp	r3, #108	; 0x6c
40008d38:	1a000004 	bne	40008d50 <vsprintf+0x2f8>
40008d3c:	e3a03071 	mov	r3, #113	; 0x71
40008d40:	e50b3028 	str	r3, [fp, #-40]	; 0x28
40008d44:	e51b303c 	ldr	r3, [fp, #-60]	; 0x3c
40008d48:	e2833001 	add	r3, r3, #1
40008d4c:	e50b303c 	str	r3, [fp, #-60]	; 0x3c
40008d50:	e51b303c 	ldr	r3, [fp, #-60]	; 0x3c
40008d54:	e2833001 	add	r3, r3, #1
40008d58:	e50b303c 	str	r3, [fp, #-60]	; 0x3c
40008d5c:	e3a0300a 	mov	r3, #10
40008d60:	e50b3010 	str	r3, [fp, #-16]
40008d64:	e51b303c 	ldr	r3, [fp, #-60]	; 0x3c
40008d68:	e5d33000 	ldrb	r3, [r3]
40008d6c:	e2433025 	sub	r3, r3, #37	; 0x25
40008d70:	e3530053 	cmp	r3, #83	; 0x53
40008d74:	979ff103 	ldrls	pc, [pc, r3, lsl #2]
40008d78:	ea00010d 	b	400091b4 <vsprintf+0x75c>
40008d7c:	40009164 	andmi	r9, r0, r4, ror #2
40008d80:	400091b4 			; <UNDEFINED> instruction: 0x400091b4
40008d84:	400091b4 			; <UNDEFINED> instruction: 0x400091b4
40008d88:	400091b4 			; <UNDEFINED> instruction: 0x400091b4
40008d8c:	400091b4 			; <UNDEFINED> instruction: 0x400091b4
40008d90:	400091b4 			; <UNDEFINED> instruction: 0x400091b4
40008d94:	400091b4 			; <UNDEFINED> instruction: 0x400091b4
40008d98:	400091b4 			; <UNDEFINED> instruction: 0x400091b4
40008d9c:	400091b4 			; <UNDEFINED> instruction: 0x400091b4
40008da0:	400091b4 			; <UNDEFINED> instruction: 0x400091b4
40008da4:	400091b4 			; <UNDEFINED> instruction: 0x400091b4
40008da8:	400091b4 			; <UNDEFINED> instruction: 0x400091b4
40008dac:	400091b4 			; <UNDEFINED> instruction: 0x400091b4
40008db0:	400091b4 			; <UNDEFINED> instruction: 0x400091b4
40008db4:	400091b4 			; <UNDEFINED> instruction: 0x400091b4
40008db8:	400091b4 			; <UNDEFINED> instruction: 0x400091b4
40008dbc:	400091b4 			; <UNDEFINED> instruction: 0x400091b4
40008dc0:	400091b4 			; <UNDEFINED> instruction: 0x400091b4
40008dc4:	400091b4 			; <UNDEFINED> instruction: 0x400091b4
40008dc8:	400091b4 			; <UNDEFINED> instruction: 0x400091b4
40008dcc:	400091b4 			; <UNDEFINED> instruction: 0x400091b4
40008dd0:	400091b4 			; <UNDEFINED> instruction: 0x400091b4
40008dd4:	400091b4 			; <UNDEFINED> instruction: 0x400091b4
40008dd8:	400091b4 			; <UNDEFINED> instruction: 0x400091b4
40008ddc:	400091b4 			; <UNDEFINED> instruction: 0x400091b4
40008de0:	400091b4 			; <UNDEFINED> instruction: 0x400091b4
40008de4:	400091b4 			; <UNDEFINED> instruction: 0x400091b4
40008de8:	400091b4 			; <UNDEFINED> instruction: 0x400091b4
40008dec:	400091b4 			; <UNDEFINED> instruction: 0x400091b4
40008df0:	400091b4 			; <UNDEFINED> instruction: 0x400091b4
40008df4:	400091b4 			; <UNDEFINED> instruction: 0x400091b4
40008df8:	400091b4 			; <UNDEFINED> instruction: 0x400091b4
40008dfc:	400091b4 			; <UNDEFINED> instruction: 0x400091b4
40008e00:	400091b4 			; <UNDEFINED> instruction: 0x400091b4
40008e04:	400091b4 			; <UNDEFINED> instruction: 0x400091b4
40008e08:	400091b4 			; <UNDEFINED> instruction: 0x400091b4
40008e0c:	400091b4 			; <UNDEFINED> instruction: 0x400091b4
40008e10:	400091b4 			; <UNDEFINED> instruction: 0x400091b4
40008e14:	400091b4 			; <UNDEFINED> instruction: 0x400091b4
40008e18:	400091b4 			; <UNDEFINED> instruction: 0x400091b4
40008e1c:	400091b4 			; <UNDEFINED> instruction: 0x400091b4
40008e20:	400091b4 			; <UNDEFINED> instruction: 0x400091b4
40008e24:	400091b4 			; <UNDEFINED> instruction: 0x400091b4
40008e28:	400091b4 			; <UNDEFINED> instruction: 0x400091b4
40008e2c:	400091b4 			; <UNDEFINED> instruction: 0x400091b4
40008e30:	400091b4 			; <UNDEFINED> instruction: 0x400091b4
40008e34:	400091b4 			; <UNDEFINED> instruction: 0x400091b4
40008e38:	400091b4 			; <UNDEFINED> instruction: 0x400091b4
40008e3c:	400091b4 			; <UNDEFINED> instruction: 0x400091b4
40008e40:	400091b4 			; <UNDEFINED> instruction: 0x400091b4
40008e44:	400091b4 			; <UNDEFINED> instruction: 0x400091b4
40008e48:	4000918c 	andmi	r9, r0, ip, lsl #3
40008e4c:	400091b4 			; <UNDEFINED> instruction: 0x400091b4
40008e50:	400091b4 			; <UNDEFINED> instruction: 0x400091b4
40008e54:	400091b4 			; <UNDEFINED> instruction: 0x400091b4
40008e58:	400091b4 			; <UNDEFINED> instruction: 0x400091b4
40008e5c:	400091b4 			; <UNDEFINED> instruction: 0x400091b4
40008e60:	400091b4 			; <UNDEFINED> instruction: 0x400091b4
40008e64:	400091b4 			; <UNDEFINED> instruction: 0x400091b4
40008e68:	400091b4 			; <UNDEFINED> instruction: 0x400091b4
40008e6c:	400091b4 			; <UNDEFINED> instruction: 0x400091b4
40008e70:	400091b4 			; <UNDEFINED> instruction: 0x400091b4
40008e74:	40008ecc 	andmi	r8, r0, ip, asr #29
40008e78:	400091a4 	andmi	r9, r0, r4, lsr #3
40008e7c:	400091b4 			; <UNDEFINED> instruction: 0x400091b4
40008e80:	400091b4 			; <UNDEFINED> instruction: 0x400091b4
40008e84:	400091b4 			; <UNDEFINED> instruction: 0x400091b4
40008e88:	400091b4 			; <UNDEFINED> instruction: 0x400091b4
40008e8c:	400091a4 	andmi	r9, r0, r4, lsr #3
40008e90:	400091b4 			; <UNDEFINED> instruction: 0x400091b4
40008e94:	400091b4 			; <UNDEFINED> instruction: 0x400091b4
40008e98:	400091b4 			; <UNDEFINED> instruction: 0x400091b4
40008e9c:	400091b4 			; <UNDEFINED> instruction: 0x400091b4
40008ea0:	40009100 	andmi	r9, r0, r0, lsl #2
40008ea4:	40009180 	andmi	r9, r0, r0, lsl #3
40008ea8:	400090a4 	andmi	r9, r0, r4, lsr #1
40008eac:	400091b4 			; <UNDEFINED> instruction: 0x400091b4
40008eb0:	400091b4 			; <UNDEFINED> instruction: 0x400091b4
40008eb4:	40008f70 	andmi	r8, r0, r0, ror pc
40008eb8:	400091b4 			; <UNDEFINED> instruction: 0x400091b4
40008ebc:	4000920c 	andmi	r9, r0, ip, lsl #4
40008ec0:	400091b4 			; <UNDEFINED> instruction: 0x400091b4
40008ec4:	400091b4 			; <UNDEFINED> instruction: 0x400091b4
40008ec8:	40009198 	mulmi	r0, r8, r1
40008ecc:	e51b301c 	ldr	r3, [fp, #-28]
40008ed0:	e2033010 	and	r3, r3, #16
40008ed4:	e3530000 	cmp	r3, #0
40008ed8:	1a00000c 	bne	40008f10 <vsprintf+0x4b8>
40008edc:	ea000005 	b	40008ef8 <vsprintf+0x4a0>
40008ee0:	e51b3014 	ldr	r3, [fp, #-20]
40008ee4:	e3a02020 	mov	r2, #32
40008ee8:	e5c32000 	strb	r2, [r3]
40008eec:	e51b3014 	ldr	r3, [fp, #-20]
40008ef0:	e2833001 	add	r3, r3, #1
40008ef4:	e50b3014 	str	r3, [fp, #-20]
40008ef8:	e51b3020 	ldr	r3, [fp, #-32]
40008efc:	e2433001 	sub	r3, r3, #1
40008f00:	e50b3020 	str	r3, [fp, #-32]
40008f04:	e51b3020 	ldr	r3, [fp, #-32]
40008f08:	e3530000 	cmp	r3, #0
40008f0c:	cafffff3 	bgt	40008ee0 <vsprintf+0x488>
40008f10:	e51b3040 	ldr	r3, [fp, #-64]	; 0x40
40008f14:	e2832004 	add	r2, r3, #4
40008f18:	e50b2040 	str	r2, [fp, #-64]	; 0x40
40008f1c:	e5933000 	ldr	r3, [r3]
40008f20:	e20320ff 	and	r2, r3, #255	; 0xff
40008f24:	e51b3014 	ldr	r3, [fp, #-20]
40008f28:	e5c32000 	strb	r2, [r3]
40008f2c:	e51b3014 	ldr	r3, [fp, #-20]
40008f30:	e2833001 	add	r3, r3, #1
40008f34:	e50b3014 	str	r3, [fp, #-20]
40008f38:	ea000005 	b	40008f54 <vsprintf+0x4fc>
40008f3c:	e51b3014 	ldr	r3, [fp, #-20]
40008f40:	e3a02020 	mov	r2, #32
40008f44:	e5c32000 	strb	r2, [r3]
40008f48:	e51b3014 	ldr	r3, [fp, #-20]
40008f4c:	e2833001 	add	r3, r3, #1
40008f50:	e50b3014 	str	r3, [fp, #-20]
40008f54:	e51b3020 	ldr	r3, [fp, #-32]
40008f58:	e2433001 	sub	r3, r3, #1
40008f5c:	e50b3020 	str	r3, [fp, #-32]
40008f60:	e51b3020 	ldr	r3, [fp, #-32]
40008f64:	e3530000 	cmp	r3, #0
40008f68:	cafffff3 	bgt	40008f3c <vsprintf+0x4e4>
40008f6c:	ea0000f5 	b	40009348 <vsprintf+0x8f0>
40008f70:	e51b3040 	ldr	r3, [fp, #-64]	; 0x40
40008f74:	e2832004 	add	r2, r3, #4
40008f78:	e50b2040 	str	r2, [fp, #-64]	; 0x40
40008f7c:	e5933000 	ldr	r3, [r3]
40008f80:	e50b3018 	str	r3, [fp, #-24]
40008f84:	e51b3018 	ldr	r3, [fp, #-24]
40008f88:	e3530000 	cmp	r3, #0
40008f8c:	1a000001 	bne	40008f98 <vsprintf+0x540>
40008f90:	e59f33f4 	ldr	r3, [pc, #1012]	; 4000938c <vsprintf+0x934>
40008f94:	e50b3018 	str	r3, [fp, #-24]
40008f98:	e51b3024 	ldr	r3, [fp, #-36]	; 0x24
40008f9c:	e51b0018 	ldr	r0, [fp, #-24]
40008fa0:	e1a01003 	mov	r1, r3
40008fa4:	ebfffe8b 	bl	400089d8 <strnlen>
40008fa8:	e1a03000 	mov	r3, r0
40008fac:	e50b302c 	str	r3, [fp, #-44]	; 0x2c
40008fb0:	e51b301c 	ldr	r3, [fp, #-28]
40008fb4:	e2033010 	and	r3, r3, #16
40008fb8:	e3530000 	cmp	r3, #0
40008fbc:	1a000011 	bne	40009008 <vsprintf+0x5b0>
40008fc0:	ea000005 	b	40008fdc <vsprintf+0x584>
40008fc4:	e51b3014 	ldr	r3, [fp, #-20]
40008fc8:	e3a02020 	mov	r2, #32
40008fcc:	e5c32000 	strb	r2, [r3]
40008fd0:	e51b3014 	ldr	r3, [fp, #-20]
40008fd4:	e2833001 	add	r3, r3, #1
40008fd8:	e50b3014 	str	r3, [fp, #-20]
40008fdc:	e51b2020 	ldr	r2, [fp, #-32]
40008fe0:	e51b302c 	ldr	r3, [fp, #-44]	; 0x2c
40008fe4:	e1520003 	cmp	r2, r3
40008fe8:	d3a03000 	movle	r3, #0
40008fec:	c3a03001 	movgt	r3, #1
40008ff0:	e20330ff 	and	r3, r3, #255	; 0xff
40008ff4:	e51b2020 	ldr	r2, [fp, #-32]
40008ff8:	e2422001 	sub	r2, r2, #1
40008ffc:	e50b2020 	str	r2, [fp, #-32]
40009000:	e3530000 	cmp	r3, #0
40009004:	1affffee 	bne	40008fc4 <vsprintf+0x56c>
40009008:	e3a03000 	mov	r3, #0
4000900c:	e50b300c 	str	r3, [fp, #-12]
40009010:	ea00000c 	b	40009048 <vsprintf+0x5f0>
40009014:	e51b3018 	ldr	r3, [fp, #-24]
40009018:	e5d32000 	ldrb	r2, [r3]
4000901c:	e51b3014 	ldr	r3, [fp, #-20]
40009020:	e5c32000 	strb	r2, [r3]
40009024:	e51b3014 	ldr	r3, [fp, #-20]
40009028:	e2833001 	add	r3, r3, #1
4000902c:	e50b3014 	str	r3, [fp, #-20]
40009030:	e51b3018 	ldr	r3, [fp, #-24]
40009034:	e2833001 	add	r3, r3, #1
40009038:	e50b3018 	str	r3, [fp, #-24]
4000903c:	e51b300c 	ldr	r3, [fp, #-12]
40009040:	e2833001 	add	r3, r3, #1
40009044:	e50b300c 	str	r3, [fp, #-12]
40009048:	e51b200c 	ldr	r2, [fp, #-12]
4000904c:	e51b302c 	ldr	r3, [fp, #-44]	; 0x2c
40009050:	e1520003 	cmp	r2, r3
40009054:	baffffee 	blt	40009014 <vsprintf+0x5bc>
40009058:	ea000005 	b	40009074 <vsprintf+0x61c>
4000905c:	e51b3014 	ldr	r3, [fp, #-20]
40009060:	e3a02020 	mov	r2, #32
40009064:	e5c32000 	strb	r2, [r3]
40009068:	e51b3014 	ldr	r3, [fp, #-20]
4000906c:	e2833001 	add	r3, r3, #1
40009070:	e50b3014 	str	r3, [fp, #-20]
40009074:	e51b2020 	ldr	r2, [fp, #-32]
40009078:	e51b302c 	ldr	r3, [fp, #-44]	; 0x2c
4000907c:	e1520003 	cmp	r2, r3
40009080:	d3a03000 	movle	r3, #0
40009084:	c3a03001 	movgt	r3, #1
40009088:	e20330ff 	and	r3, r3, #255	; 0xff
4000908c:	e51b2020 	ldr	r2, [fp, #-32]
40009090:	e2422001 	sub	r2, r2, #1
40009094:	e50b2020 	str	r2, [fp, #-32]
40009098:	e3530000 	cmp	r3, #0
4000909c:	1affffee 	bne	4000905c <vsprintf+0x604>
400090a0:	ea0000a8 	b	40009348 <vsprintf+0x8f0>
400090a4:	e51b3020 	ldr	r3, [fp, #-32]
400090a8:	e3730001 	cmn	r3, #1
400090ac:	1a000004 	bne	400090c4 <vsprintf+0x66c>
400090b0:	e3a03008 	mov	r3, #8
400090b4:	e50b3020 	str	r3, [fp, #-32]
400090b8:	e51b301c 	ldr	r3, [fp, #-28]
400090bc:	e3833001 	orr	r3, r3, #1
400090c0:	e50b301c 	str	r3, [fp, #-28]
400090c4:	e51b3040 	ldr	r3, [fp, #-64]	; 0x40
400090c8:	e2832004 	add	r2, r3, #4
400090cc:	e50b2040 	str	r2, [fp, #-64]	; 0x40
400090d0:	e5933000 	ldr	r3, [r3]
400090d4:	e51b2024 	ldr	r2, [fp, #-36]	; 0x24
400090d8:	e58d2000 	str	r2, [sp]
400090dc:	e51b201c 	ldr	r2, [fp, #-28]
400090e0:	e58d2004 	str	r2, [sp, #4]
400090e4:	e51b0014 	ldr	r0, [fp, #-20]
400090e8:	e1a01003 	mov	r1, r3
400090ec:	e3a02010 	mov	r2, #16
400090f0:	e51b3020 	ldr	r3, [fp, #-32]
400090f4:	ebfffd11 	bl	40008540 <number>
400090f8:	e50b0014 	str	r0, [fp, #-20]
400090fc:	ea000091 	b	40009348 <vsprintf+0x8f0>
40009100:	e51b3028 	ldr	r3, [fp, #-40]	; 0x28
40009104:	e353006c 	cmp	r3, #108	; 0x6c
40009108:	1a00000a 	bne	40009138 <vsprintf+0x6e0>
4000910c:	e51b3040 	ldr	r3, [fp, #-64]	; 0x40
40009110:	e2832004 	add	r2, r3, #4
40009114:	e50b2040 	str	r2, [fp, #-64]	; 0x40
40009118:	e5933000 	ldr	r3, [r3]
4000911c:	e50b3030 	str	r3, [fp, #-48]	; 0x30
40009120:	e51b2014 	ldr	r2, [fp, #-20]
40009124:	e51b3038 	ldr	r3, [fp, #-56]	; 0x38
40009128:	e0632002 	rsb	r2, r3, r2
4000912c:	e51b3030 	ldr	r3, [fp, #-48]	; 0x30
40009130:	e5832000 	str	r2, [r3]
40009134:	ea000083 	b	40009348 <vsprintf+0x8f0>
40009138:	e51b3040 	ldr	r3, [fp, #-64]	; 0x40
4000913c:	e2832004 	add	r2, r3, #4
40009140:	e50b2040 	str	r2, [fp, #-64]	; 0x40
40009144:	e5933000 	ldr	r3, [r3]
40009148:	e50b3034 	str	r3, [fp, #-52]	; 0x34
4000914c:	e51b2014 	ldr	r2, [fp, #-20]
40009150:	e51b3038 	ldr	r3, [fp, #-56]	; 0x38
40009154:	e0632002 	rsb	r2, r3, r2
40009158:	e51b3034 	ldr	r3, [fp, #-52]	; 0x34
4000915c:	e5832000 	str	r2, [r3]
40009160:	ea000078 	b	40009348 <vsprintf+0x8f0>
40009164:	e51b3014 	ldr	r3, [fp, #-20]
40009168:	e3a02025 	mov	r2, #37	; 0x25
4000916c:	e5c32000 	strb	r2, [r3]
40009170:	e51b3014 	ldr	r3, [fp, #-20]
40009174:	e2833001 	add	r3, r3, #1
40009178:	e50b3014 	str	r3, [fp, #-20]
4000917c:	ea000071 	b	40009348 <vsprintf+0x8f0>
40009180:	e3a03008 	mov	r3, #8
40009184:	e50b3010 	str	r3, [fp, #-16]
40009188:	ea000020 	b	40009210 <vsprintf+0x7b8>
4000918c:	e51b301c 	ldr	r3, [fp, #-28]
40009190:	e3833040 	orr	r3, r3, #64	; 0x40
40009194:	e50b301c 	str	r3, [fp, #-28]
40009198:	e3a03010 	mov	r3, #16
4000919c:	e50b3010 	str	r3, [fp, #-16]
400091a0:	ea00001a 	b	40009210 <vsprintf+0x7b8>
400091a4:	e51b301c 	ldr	r3, [fp, #-28]
400091a8:	e3833002 	orr	r3, r3, #2
400091ac:	e50b301c 	str	r3, [fp, #-28]
400091b0:	ea000015 	b	4000920c <vsprintf+0x7b4>
400091b4:	e51b3014 	ldr	r3, [fp, #-20]
400091b8:	e3a02025 	mov	r2, #37	; 0x25
400091bc:	e5c32000 	strb	r2, [r3]
400091c0:	e51b3014 	ldr	r3, [fp, #-20]
400091c4:	e2833001 	add	r3, r3, #1
400091c8:	e50b3014 	str	r3, [fp, #-20]
400091cc:	e51b303c 	ldr	r3, [fp, #-60]	; 0x3c
400091d0:	e5d33000 	ldrb	r3, [r3]
400091d4:	e3530000 	cmp	r3, #0
400091d8:	0a000007 	beq	400091fc <vsprintf+0x7a4>
400091dc:	e51b303c 	ldr	r3, [fp, #-60]	; 0x3c
400091e0:	e5d32000 	ldrb	r2, [r3]
400091e4:	e51b3014 	ldr	r3, [fp, #-20]
400091e8:	e5c32000 	strb	r2, [r3]
400091ec:	e51b3014 	ldr	r3, [fp, #-20]
400091f0:	e2833001 	add	r3, r3, #1
400091f4:	e50b3014 	str	r3, [fp, #-20]
400091f8:	ea000052 	b	40009348 <vsprintf+0x8f0>
400091fc:	e51b303c 	ldr	r3, [fp, #-60]	; 0x3c
40009200:	e2433001 	sub	r3, r3, #1
40009204:	e50b303c 	str	r3, [fp, #-60]	; 0x3c
40009208:	ea00004e 	b	40009348 <vsprintf+0x8f0>
4000920c:	e1a00000 	nop			; (mov r0, r0)
40009210:	e51b3028 	ldr	r3, [fp, #-40]	; 0x28
40009214:	e353006c 	cmp	r3, #108	; 0x6c
40009218:	1a000005 	bne	40009234 <vsprintf+0x7dc>
4000921c:	e51b3040 	ldr	r3, [fp, #-64]	; 0x40
40009220:	e2832004 	add	r2, r3, #4
40009224:	e50b2040 	str	r2, [fp, #-64]	; 0x40
40009228:	e5933000 	ldr	r3, [r3]
4000922c:	e50b3008 	str	r3, [fp, #-8]
40009230:	ea000038 	b	40009318 <vsprintf+0x8c0>
40009234:	e51b3028 	ldr	r3, [fp, #-40]	; 0x28
40009238:	e353005a 	cmp	r3, #90	; 0x5a
4000923c:	0a000002 	beq	4000924c <vsprintf+0x7f4>
40009240:	e51b3028 	ldr	r3, [fp, #-40]	; 0x28
40009244:	e353007a 	cmp	r3, #122	; 0x7a
40009248:	1a000005 	bne	40009264 <vsprintf+0x80c>
4000924c:	e51b3040 	ldr	r3, [fp, #-64]	; 0x40
40009250:	e2832004 	add	r2, r3, #4
40009254:	e50b2040 	str	r2, [fp, #-64]	; 0x40
40009258:	e5933000 	ldr	r3, [r3]
4000925c:	e50b3008 	str	r3, [fp, #-8]
40009260:	ea00002c 	b	40009318 <vsprintf+0x8c0>
40009264:	e51b3028 	ldr	r3, [fp, #-40]	; 0x28
40009268:	e3530074 	cmp	r3, #116	; 0x74
4000926c:	1a000005 	bne	40009288 <vsprintf+0x830>
40009270:	e51b3040 	ldr	r3, [fp, #-64]	; 0x40
40009274:	e2832004 	add	r2, r3, #4
40009278:	e50b2040 	str	r2, [fp, #-64]	; 0x40
4000927c:	e5933000 	ldr	r3, [r3]
40009280:	e50b3008 	str	r3, [fp, #-8]
40009284:	ea000023 	b	40009318 <vsprintf+0x8c0>
40009288:	e51b3028 	ldr	r3, [fp, #-40]	; 0x28
4000928c:	e3530068 	cmp	r3, #104	; 0x68
40009290:	1a000011 	bne	400092dc <vsprintf+0x884>
40009294:	e51b3040 	ldr	r3, [fp, #-64]	; 0x40
40009298:	e2832004 	add	r2, r3, #4
4000929c:	e50b2040 	str	r2, [fp, #-64]	; 0x40
400092a0:	e5933000 	ldr	r3, [r3]
400092a4:	e1a03803 	lsl	r3, r3, #16
400092a8:	e1a03823 	lsr	r3, r3, #16
400092ac:	e50b3008 	str	r3, [fp, #-8]
400092b0:	e51b301c 	ldr	r3, [fp, #-28]
400092b4:	e2033002 	and	r3, r3, #2
400092b8:	e3530000 	cmp	r3, #0
400092bc:	0a000015 	beq	40009318 <vsprintf+0x8c0>
400092c0:	e51b3008 	ldr	r3, [fp, #-8]
400092c4:	e1a03803 	lsl	r3, r3, #16
400092c8:	e1a03823 	lsr	r3, r3, #16
400092cc:	e1a03803 	lsl	r3, r3, #16
400092d0:	e1a03843 	asr	r3, r3, #16
400092d4:	e50b3008 	str	r3, [fp, #-8]
400092d8:	ea00000e 	b	40009318 <vsprintf+0x8c0>
400092dc:	e51b301c 	ldr	r3, [fp, #-28]
400092e0:	e2033002 	and	r3, r3, #2
400092e4:	e3530000 	cmp	r3, #0
400092e8:	0a000005 	beq	40009304 <vsprintf+0x8ac>
400092ec:	e51b3040 	ldr	r3, [fp, #-64]	; 0x40
400092f0:	e2832004 	add	r2, r3, #4
400092f4:	e50b2040 	str	r2, [fp, #-64]	; 0x40
400092f8:	e5933000 	ldr	r3, [r3]
400092fc:	e50b3008 	str	r3, [fp, #-8]
40009300:	ea000004 	b	40009318 <vsprintf+0x8c0>
40009304:	e51b3040 	ldr	r3, [fp, #-64]	; 0x40
40009308:	e2832004 	add	r2, r3, #4
4000930c:	e50b2040 	str	r2, [fp, #-64]	; 0x40
40009310:	e5933000 	ldr	r3, [r3]
40009314:	e50b3008 	str	r3, [fp, #-8]
40009318:	e51b2008 	ldr	r2, [fp, #-8]
4000931c:	e51b3010 	ldr	r3, [fp, #-16]
40009320:	e51b1024 	ldr	r1, [fp, #-36]	; 0x24
40009324:	e58d1000 	str	r1, [sp]
40009328:	e51b101c 	ldr	r1, [fp, #-28]
4000932c:	e58d1004 	str	r1, [sp, #4]
40009330:	e51b0014 	ldr	r0, [fp, #-20]
40009334:	e1a01002 	mov	r1, r2
40009338:	e1a02003 	mov	r2, r3
4000933c:	e51b3020 	ldr	r3, [fp, #-32]
40009340:	ebfffc7e 	bl	40008540 <number>
40009344:	e50b0014 	str	r0, [fp, #-20]
40009348:	e51b303c 	ldr	r3, [fp, #-60]	; 0x3c
4000934c:	e2833001 	add	r3, r3, #1
40009350:	e50b303c 	str	r3, [fp, #-60]	; 0x3c
40009354:	e51b303c 	ldr	r3, [fp, #-60]	; 0x3c
40009358:	e5d33000 	ldrb	r3, [r3]
4000935c:	e3530000 	cmp	r3, #0
40009360:	1afffdc5 	bne	40008a7c <vsprintf+0x24>
40009364:	e51b3014 	ldr	r3, [fp, #-20]
40009368:	e3a02000 	mov	r2, #0
4000936c:	e5c32000 	strb	r2, [r3]
40009370:	e51b2014 	ldr	r2, [fp, #-20]
40009374:	e51b3038 	ldr	r3, [fp, #-56]	; 0x38
40009378:	e0633002 	rsb	r3, r3, r2
4000937c:	e1a00003 	mov	r0, r3
40009380:	e24bd004 	sub	sp, fp, #4
40009384:	e8bd4800 	pop	{fp, lr}
40009388:	e12fff1e 	bx	lr
4000938c:	4000a114 	andmi	sl, r0, r4, lsl r1

40009390 <sprintf>:
40009390:	e92d000e 	push	{r1, r2, r3}
40009394:	e92d4800 	push	{fp, lr}
40009398:	e28db004 	add	fp, sp, #4
4000939c:	e24dd00c 	sub	sp, sp, #12
400093a0:	e50b0010 	str	r0, [fp, #-16]
400093a4:	e28b2008 	add	r2, fp, #8
400093a8:	e24b300c 	sub	r3, fp, #12
400093ac:	e5832000 	str	r2, [r3]
400093b0:	e51b300c 	ldr	r3, [fp, #-12]
400093b4:	e51b0010 	ldr	r0, [fp, #-16]
400093b8:	e59b1004 	ldr	r1, [fp, #4]
400093bc:	e1a02003 	mov	r2, r3
400093c0:	ebfffda4 	bl	40008a58 <vsprintf>
400093c4:	e50b0008 	str	r0, [fp, #-8]
400093c8:	e51b3008 	ldr	r3, [fp, #-8]
400093cc:	e1a00003 	mov	r0, r3
400093d0:	e24bd004 	sub	sp, fp, #4
400093d4:	e8bd4800 	pop	{fp, lr}
400093d8:	e28dd00c 	add	sp, sp, #12
400093dc:	e12fff1e 	bx	lr

400093e0 <printf>:
400093e0:	e92d000f 	push	{r0, r1, r2, r3}
400093e4:	e92d4800 	push	{fp, lr}
400093e8:	e28db004 	add	fp, sp, #4
400093ec:	e24dd06c 	sub	sp, sp, #108	; 0x6c
400093f0:	e28b2008 	add	r2, fp, #8
400093f4:	e24b300c 	sub	r3, fp, #12
400093f8:	e5832000 	str	r2, [r3]
400093fc:	e51b300c 	ldr	r3, [fp, #-12]
40009400:	e24b2070 	sub	r2, fp, #112	; 0x70
40009404:	e1a00002 	mov	r0, r2
40009408:	e59b1004 	ldr	r1, [fp, #4]
4000940c:	e1a02003 	mov	r2, r3
40009410:	ebfffd90 	bl	40008a58 <vsprintf>
40009414:	e1a03000 	mov	r3, r0
40009418:	e50b3008 	str	r3, [fp, #-8]
4000941c:	e24b3070 	sub	r3, fp, #112	; 0x70
40009420:	e1a00003 	mov	r0, r3
40009424:	eb000033 	bl	400094f8 <puts>
40009428:	e24bd004 	sub	sp, fp, #4
4000942c:	e8bd4800 	pop	{fp, lr}
40009430:	e28dd010 	add	sp, sp, #16
40009434:	e12fff1e 	bx	lr

40009438 <uart_init>:
40009438:	e52db004 	push	{fp}		; (str fp, [sp, #-4]!)
4000943c:	e28db000 	add	fp, sp, #0
40009440:	e59f304c 	ldr	r3, [pc, #76]	; 40009494 <uart_init+0x5c>
40009444:	e59f2048 	ldr	r2, [pc, #72]	; 40009494 <uart_init+0x5c>
40009448:	e5922000 	ldr	r2, [r2]
4000944c:	e3c220ff 	bic	r2, r2, #255	; 0xff
40009450:	e3822022 	orr	r2, r2, #34	; 0x22
40009454:	e5832000 	str	r2, [r3]
40009458:	e59f3038 	ldr	r3, [pc, #56]	; 40009498 <uart_init+0x60>
4000945c:	e3a02003 	mov	r2, #3
40009460:	e5832000 	str	r2, [r3]
40009464:	e59f302c 	ldr	r3, [pc, #44]	; 40009498 <uart_init+0x60>
40009468:	e3a02005 	mov	r2, #5
4000946c:	e5832004 	str	r2, [r3, #4]
40009470:	e59f3020 	ldr	r3, [pc, #32]	; 40009498 <uart_init+0x60>
40009474:	e3a02035 	mov	r2, #53	; 0x35
40009478:	e5832028 	str	r2, [r3, #40]	; 0x28
4000947c:	e59f3014 	ldr	r3, [pc, #20]	; 40009498 <uart_init+0x60>
40009480:	e3a02005 	mov	r2, #5
40009484:	e583202c 	str	r2, [r3, #44]	; 0x2c
40009488:	e28bd000 	add	sp, fp, #0
4000948c:	e8bd0800 	pop	{fp}
40009490:	e12fff1e 	bx	lr
40009494:	11400020 	cmpne	r0, r0, lsr #32
40009498:	13820000 	orrne	r0, r2, #0

4000949c <putc>:
4000949c:	e92d4800 	push	{fp, lr}
400094a0:	e28db004 	add	fp, sp, #4
400094a4:	e24dd004 	sub	sp, sp, #4
400094a8:	e1a03000 	mov	r3, r0
400094ac:	e54b3008 	strb	r3, [fp, #-8]
400094b0:	e1a00000 	nop			; (mov r0, r0)
400094b4:	e59f3038 	ldr	r3, [pc, #56]	; 400094f4 <putc+0x58>
400094b8:	e5933010 	ldr	r3, [r3, #16]
400094bc:	e2033002 	and	r3, r3, #2
400094c0:	e3530000 	cmp	r3, #0
400094c4:	0afffffa 	beq	400094b4 <putc+0x18>
400094c8:	e59f3024 	ldr	r3, [pc, #36]	; 400094f4 <putc+0x58>
400094cc:	e55b2008 	ldrb	r2, [fp, #-8]
400094d0:	e5832020 	str	r2, [r3, #32]
400094d4:	e55b3008 	ldrb	r3, [fp, #-8]
400094d8:	e353000a 	cmp	r3, #10
400094dc:	1a000001 	bne	400094e8 <putc+0x4c>
400094e0:	e3a0000d 	mov	r0, #13
400094e4:	ebffffec 	bl	4000949c <putc>
400094e8:	e24bd004 	sub	sp, fp, #4
400094ec:	e8bd4800 	pop	{fp, lr}
400094f0:	e12fff1e 	bx	lr
400094f4:	13820000 	orrne	r0, r2, #0

400094f8 <puts>:
400094f8:	e92d4800 	push	{fp, lr}
400094fc:	e28db004 	add	fp, sp, #4
40009500:	e24dd004 	sub	sp, sp, #4
40009504:	e50b0008 	str	r0, [fp, #-8]
40009508:	ea000006 	b	40009528 <puts+0x30>
4000950c:	e51b3008 	ldr	r3, [fp, #-8]
40009510:	e5d33000 	ldrb	r3, [r3]
40009514:	e51b2008 	ldr	r2, [fp, #-8]
40009518:	e2822001 	add	r2, r2, #1
4000951c:	e50b2008 	str	r2, [fp, #-8]
40009520:	e1a00003 	mov	r0, r3
40009524:	ebffffdc 	bl	4000949c <putc>
40009528:	e51b3008 	ldr	r3, [fp, #-8]
4000952c:	e5d33000 	ldrb	r3, [r3]
40009530:	e3530000 	cmp	r3, #0
40009534:	1afffff4 	bne	4000950c <puts+0x14>
40009538:	e24bd004 	sub	sp, fp, #4
4000953c:	e8bd4800 	pop	{fp, lr}
40009540:	e12fff1e 	bx	lr

40009544 <beep_init>:
40009544:	e52db004 	push	{fp}		; (str fp, [sp, #-4]!)
40009548:	e28db000 	add	fp, sp, #0
4000954c:	e59f3030 	ldr	r3, [pc, #48]	; 40009584 <beep_init+0x40>
40009550:	e59f202c 	ldr	r2, [pc, #44]	; 40009584 <beep_init+0x40>
40009554:	e5922000 	ldr	r2, [r2]
40009558:	e3c220ff 	bic	r2, r2, #255	; 0xff
4000955c:	e3822063 	orr	r2, r2, #99	; 0x63
40009560:	e5832000 	str	r2, [r3]
40009564:	e59f3018 	ldr	r3, [pc, #24]	; 40009584 <beep_init+0x40>
40009568:	e59f2014 	ldr	r2, [pc, #20]	; 40009584 <beep_init+0x40>
4000956c:	e5922004 	ldr	r2, [r2, #4]
40009570:	e3c2200f 	bic	r2, r2, #15
40009574:	e5832004 	str	r2, [r3, #4]
40009578:	e28bd000 	add	sp, fp, #0
4000957c:	e8bd0800 	pop	{fp}
40009580:	e12fff1e 	bx	lr
40009584:	139d0000 	orrsne	r0, sp, #0

40009588 <beep_on>:
40009588:	e52db004 	push	{fp}		; (str fp, [sp, #-4]!)
4000958c:	e28db000 	add	fp, sp, #0
40009590:	e24dd004 	sub	sp, sp, #4
40009594:	e50b0004 	str	r0, [fp, #-4]
40009598:	e59f3078 	ldr	r3, [pc, #120]	; 40009618 <beep_on+0x90>
4000959c:	e59f2078 	ldr	r2, [pc, #120]	; 4000961c <beep_on+0x94>
400095a0:	e51b1004 	ldr	r1, [fp, #-4]
400095a4:	e7922101 	ldr	r2, [r2, r1, lsl #2]
400095a8:	e583200c 	str	r2, [r3, #12]
400095ac:	e59f3064 	ldr	r3, [pc, #100]	; 40009618 <beep_on+0x90>
400095b0:	e59f2064 	ldr	r2, [pc, #100]	; 4000961c <beep_on+0x94>
400095b4:	e51b1004 	ldr	r1, [fp, #-4]
400095b8:	e7922101 	ldr	r2, [r2, r1, lsl #2]
400095bc:	e1a020a2 	lsr	r2, r2, #1
400095c0:	e5832010 	str	r2, [r3, #16]
400095c4:	e59f3054 	ldr	r3, [pc, #84]	; 40009620 <beep_on+0x98>
400095c8:	e59f2050 	ldr	r2, [pc, #80]	; 40009620 <beep_on+0x98>
400095cc:	e5922000 	ldr	r2, [r2]
400095d0:	e3c2200f 	bic	r2, r2, #15
400095d4:	e3822002 	orr	r2, r2, #2
400095d8:	e5832000 	str	r2, [r3]
400095dc:	e59f3034 	ldr	r3, [pc, #52]	; 40009618 <beep_on+0x90>
400095e0:	e59f2030 	ldr	r2, [pc, #48]	; 40009618 <beep_on+0x90>
400095e4:	e5922008 	ldr	r2, [r2, #8]
400095e8:	e3c220ff 	bic	r2, r2, #255	; 0xff
400095ec:	e382200a 	orr	r2, r2, #10
400095f0:	e5832008 	str	r2, [r3, #8]
400095f4:	e59f301c 	ldr	r3, [pc, #28]	; 40009618 <beep_on+0x90>
400095f8:	e59f2018 	ldr	r2, [pc, #24]	; 40009618 <beep_on+0x90>
400095fc:	e5922008 	ldr	r2, [r2, #8]
40009600:	e3c220ff 	bic	r2, r2, #255	; 0xff
40009604:	e3822009 	orr	r2, r2, #9
40009608:	e5832008 	str	r2, [r3, #8]
4000960c:	e28bd000 	add	sp, fp, #0
40009610:	e8bd0800 	pop	{fp}
40009614:	e12fff1e 	bx	lr
40009618:	139d0000 	orrsne	r0, sp, #0
4000961c:	4000ab64 	andmi	sl, r0, r4, ror #22
40009620:	114000a0 	smlaltbne	r0, r0, r0, r0	; <UNPREDICTABLE>

40009624 <beep_short>:
40009624:	e92d4800 	push	{fp, lr}
40009628:	e28db004 	add	fp, sp, #4
4000962c:	e24dd008 	sub	sp, sp, #8
40009630:	e50b0008 	str	r0, [fp, #-8]
40009634:	e50b100c 	str	r1, [fp, #-12]
40009638:	e51b0008 	ldr	r0, [fp, #-8]
4000963c:	ebffffd1 	bl	40009588 <beep_on>
40009640:	e51b000c 	ldr	r0, [fp, #-12]
40009644:	e3a01014 	mov	r1, #20
40009648:	eb000245 	bl	40009f64 <timer4_start>
4000964c:	e24bd004 	sub	sp, fp, #4
40009650:	e8bd4800 	pop	{fp, lr}
40009654:	e12fff1e 	bx	lr

40009658 <beep_off>:
40009658:	e52db004 	push	{fp}		; (str fp, [sp, #-4]!)
4000965c:	e28db000 	add	fp, sp, #0
40009660:	e59f302c 	ldr	r3, [pc, #44]	; 40009694 <beep_off+0x3c>
40009664:	e59f2028 	ldr	r2, [pc, #40]	; 40009694 <beep_off+0x3c>
40009668:	e5922000 	ldr	r2, [r2]
4000966c:	e3c2200f 	bic	r2, r2, #15
40009670:	e5832000 	str	r2, [r3]
40009674:	e59f301c 	ldr	r3, [pc, #28]	; 40009698 <beep_off+0x40>
40009678:	e59f2018 	ldr	r2, [pc, #24]	; 40009698 <beep_off+0x40>
4000967c:	e5922008 	ldr	r2, [r2, #8]
40009680:	e3c220ff 	bic	r2, r2, #255	; 0xff
40009684:	e5832008 	str	r2, [r3, #8]
40009688:	e28bd000 	add	sp, fp, #0
4000968c:	e8bd0800 	pop	{fp}
40009690:	e12fff1e 	bx	lr
40009694:	114000a0 	smlaltbne	r0, r0, r0, r0	; <UNPREDICTABLE>
40009698:	139d0000 	orrsne	r0, sp, #0

4000969c <key2_int>:
4000969c:	e92d4800 	push	{fp, lr}
400096a0:	e28db004 	add	fp, sp, #4
400096a4:	e3a00032 	mov	r0, #50	; 0x32
400096a8:	e3a01002 	mov	r1, #2
400096ac:	eb00022c 	bl	40009f64 <timer4_start>
400096b0:	e59f301c 	ldr	r3, [pc, #28]	; 400096d4 <key2_int+0x38>
400096b4:	e3a02002 	mov	r2, #2
400096b8:	e5832000 	str	r2, [r3]
400096bc:	e59f3014 	ldr	r3, [pc, #20]	; 400096d8 <key2_int+0x3c>
400096c0:	e3a02402 	mov	r2, #33554432	; 0x2000000
400096c4:	e5832004 	str	r2, [r3, #4]
400096c8:	e24bd004 	sub	sp, fp, #4
400096cc:	e8bd4800 	pop	{fp, lr}
400096d0:	e12fff1e 	bx	lr
400096d4:	11000f44 	tstne	r0, r4, asr #30
400096d8:	10490280 	subne	r0, r9, r0, lsl #5

400096dc <key3_int>:
400096dc:	e92d4800 	push	{fp, lr}
400096e0:	e28db004 	add	fp, sp, #4
400096e4:	e3a00032 	mov	r0, #50	; 0x32
400096e8:	e3a01003 	mov	r1, #3
400096ec:	eb00021c 	bl	40009f64 <timer4_start>
400096f0:	e59f301c 	ldr	r3, [pc, #28]	; 40009714 <key3_int+0x38>
400096f4:	e3a02004 	mov	r2, #4
400096f8:	e5832000 	str	r2, [r3]
400096fc:	e59f3014 	ldr	r3, [pc, #20]	; 40009718 <key3_int+0x3c>
40009700:	e3a02301 	mov	r2, #67108864	; 0x4000000
40009704:	e5832004 	str	r2, [r3, #4]
40009708:	e24bd004 	sub	sp, fp, #4
4000970c:	e8bd4800 	pop	{fp, lr}
40009710:	e12fff1e 	bx	lr
40009714:	11000f44 	tstne	r0, r4, asr #30
40009718:	10490280 	subne	r0, r9, r0, lsl #5

4000971c <key_init>:
4000971c:	e92d4800 	push	{fp, lr}
40009720:	e28db004 	add	fp, sp, #4
40009724:	eb000230 	bl	40009fec <timer4_open>
40009728:	e59f3174 	ldr	r3, [pc, #372]	; 400098a4 <key_init+0x188>
4000972c:	e59f2170 	ldr	r2, [pc, #368]	; 400098a4 <key_init+0x188>
40009730:	e5922000 	ldr	r2, [r2]
40009734:	e38220f0 	orr	r2, r2, #240	; 0xf0
40009738:	e5832000 	str	r2, [r3]
4000973c:	e59f3164 	ldr	r3, [pc, #356]	; 400098a8 <key_init+0x18c>
40009740:	e59f2160 	ldr	r2, [pc, #352]	; 400098a8 <key_init+0x18c>
40009744:	e5922000 	ldr	r2, [r2]
40009748:	e3c220f0 	bic	r2, r2, #240	; 0xf0
4000974c:	e3822020 	orr	r2, r2, #32
40009750:	e5832000 	str	r2, [r3]
40009754:	e59f3150 	ldr	r3, [pc, #336]	; 400098ac <key_init+0x190>
40009758:	e59f214c 	ldr	r2, [pc, #332]	; 400098ac <key_init+0x190>
4000975c:	e5922000 	ldr	r2, [r2]
40009760:	e3822902 	orr	r2, r2, #32768	; 0x8000
40009764:	e5832000 	str	r2, [r3]
40009768:	e59f313c 	ldr	r3, [pc, #316]	; 400098ac <key_init+0x190>
4000976c:	e59f2138 	ldr	r2, [pc, #312]	; 400098ac <key_init+0x190>
40009770:	e5922000 	ldr	r2, [r2]
40009774:	e3c22901 	bic	r2, r2, #16384	; 0x4000
40009778:	e5832000 	str	r2, [r3]
4000977c:	e59f312c 	ldr	r3, [pc, #300]	; 400098b0 <key_init+0x194>
40009780:	e59f2128 	ldr	r2, [pc, #296]	; 400098b0 <key_init+0x194>
40009784:	e5922000 	ldr	r2, [r2]
40009788:	e3c22002 	bic	r2, r2, #2
4000978c:	e5832000 	str	r2, [r3]
40009790:	e59f311c 	ldr	r3, [pc, #284]	; 400098b4 <key_init+0x198>
40009794:	e59f211c 	ldr	r2, [pc, #284]	; 400098b8 <key_init+0x19c>
40009798:	e58320e4 	str	r2, [r3, #228]	; 0xe4
4000979c:	e59f3118 	ldr	r3, [pc, #280]	; 400098bc <key_init+0x1a0>
400097a0:	e59f2114 	ldr	r2, [pc, #276]	; 400098bc <key_init+0x1a0>
400097a4:	e5922004 	ldr	r2, [r2, #4]
400097a8:	e3822402 	orr	r2, r2, #33554432	; 0x2000000
400097ac:	e5832004 	str	r2, [r3, #4]
400097b0:	e59f3108 	ldr	r3, [pc, #264]	; 400098c0 <key_init+0x1a4>
400097b4:	e59f2104 	ldr	r2, [pc, #260]	; 400098c0 <key_init+0x1a4>
400097b8:	e5922038 	ldr	r2, [r2, #56]	; 0x38
400097bc:	e3c22cff 	bic	r2, r2, #65280	; 0xff00
400097c0:	e3822c01 	orr	r2, r2, #256	; 0x100
400097c4:	e5832038 	str	r2, [r3, #56]	; 0x38
400097c8:	e59f30f4 	ldr	r3, [pc, #244]	; 400098c4 <key_init+0x1a8>
400097cc:	e3a02001 	mov	r2, #1
400097d0:	e5832000 	str	r2, [r3]
400097d4:	e59f30ec 	ldr	r3, [pc, #236]	; 400098c8 <key_init+0x1ac>
400097d8:	e3a02001 	mov	r2, #1
400097dc:	e5832000 	str	r2, [r3]
400097e0:	e59f30bc 	ldr	r3, [pc, #188]	; 400098a4 <key_init+0x188>
400097e4:	e59f20b8 	ldr	r2, [pc, #184]	; 400098a4 <key_init+0x188>
400097e8:	e5922000 	ldr	r2, [r2]
400097ec:	e3822c0f 	orr	r2, r2, #3840	; 0xf00
400097f0:	e5832000 	str	r2, [r3]
400097f4:	e59f30ac 	ldr	r3, [pc, #172]	; 400098a8 <key_init+0x18c>
400097f8:	e59f20a8 	ldr	r2, [pc, #168]	; 400098a8 <key_init+0x18c>
400097fc:	e5922000 	ldr	r2, [r2]
40009800:	e3c22c0f 	bic	r2, r2, #3840	; 0xf00
40009804:	e3822c02 	orr	r2, r2, #512	; 0x200
40009808:	e5832000 	str	r2, [r3]
4000980c:	e59f3098 	ldr	r3, [pc, #152]	; 400098ac <key_init+0x190>
40009810:	e59f2094 	ldr	r2, [pc, #148]	; 400098ac <key_init+0x190>
40009814:	e5922000 	ldr	r2, [r2]
40009818:	e3822502 	orr	r2, r2, #8388608	; 0x800000
4000981c:	e5832000 	str	r2, [r3]
40009820:	e59f3084 	ldr	r3, [pc, #132]	; 400098ac <key_init+0x190>
40009824:	e59f2080 	ldr	r2, [pc, #128]	; 400098ac <key_init+0x190>
40009828:	e5922000 	ldr	r2, [r2]
4000982c:	e3c22501 	bic	r2, r2, #4194304	; 0x400000
40009830:	e5832000 	str	r2, [r3]
40009834:	e59f3074 	ldr	r3, [pc, #116]	; 400098b0 <key_init+0x194>
40009838:	e59f2070 	ldr	r2, [pc, #112]	; 400098b0 <key_init+0x194>
4000983c:	e5922000 	ldr	r2, [r2]
40009840:	e3c22004 	bic	r2, r2, #4
40009844:	e5832000 	str	r2, [r3]
40009848:	e59f3064 	ldr	r3, [pc, #100]	; 400098b4 <key_init+0x198>
4000984c:	e59f2078 	ldr	r2, [pc, #120]	; 400098cc <key_init+0x1b0>
40009850:	e58320e8 	str	r2, [r3, #232]	; 0xe8
40009854:	e59f3060 	ldr	r3, [pc, #96]	; 400098bc <key_init+0x1a0>
40009858:	e59f205c 	ldr	r2, [pc, #92]	; 400098bc <key_init+0x1a0>
4000985c:	e5922004 	ldr	r2, [r2, #4]
40009860:	e3822301 	orr	r2, r2, #67108864	; 0x4000000
40009864:	e5832004 	str	r2, [r3, #4]
40009868:	e59f3050 	ldr	r3, [pc, #80]	; 400098c0 <key_init+0x1a4>
4000986c:	e59f204c 	ldr	r2, [pc, #76]	; 400098c0 <key_init+0x1a4>
40009870:	e5922038 	ldr	r2, [r2, #56]	; 0x38
40009874:	e3c228ff 	bic	r2, r2, #16711680	; 0xff0000
40009878:	e3822801 	orr	r2, r2, #65536	; 0x10000
4000987c:	e5832038 	str	r2, [r3, #56]	; 0x38
40009880:	e59f303c 	ldr	r3, [pc, #60]	; 400098c4 <key_init+0x1a8>
40009884:	e3a02001 	mov	r2, #1
40009888:	e5832000 	str	r2, [r3]
4000988c:	e59f3034 	ldr	r3, [pc, #52]	; 400098c8 <key_init+0x1ac>
40009890:	e3a02001 	mov	r2, #1
40009894:	e5832000 	str	r2, [r3]
40009898:	e24bd004 	sub	sp, fp, #4
4000989c:	e8bd4800 	pop	{fp, lr}
400098a0:	e12fff1e 	bx	lr
400098a4:	11000c20 	tstne	r0, r0, lsr #24
400098a8:	11000e04 	tstne	r0, r4, lsl #28
400098ac:	11000e88 	smlabbne	r0, r8, lr, r0
400098b0:	11000f04 	tstne	r0, r4, lsl #30
400098b4:	4000ab80 	andmi	sl, r0, r0, lsl #23
400098b8:	4000969c 	mulmi	r0, ip, r6
400098bc:	10490100 	subne	r0, r9, r0, lsl #2
400098c0:	10490800 	subne	r0, r9, r0, lsl #16
400098c4:	10490000 	subne	r0, r9, r0
400098c8:	10480000 	subne	r0, r8, r0
400098cc:	400096dc 	ldrdmi	r9, [r0], -ip

400098d0 <eint16_31_int>:
400098d0:	e92d4800 	push	{fp, lr}
400098d4:	e28db004 	add	fp, sp, #4
400098d8:	e59f303c 	ldr	r3, [pc, #60]	; 4000991c <eint16_31_int+0x4c>
400098dc:	e5933000 	ldr	r3, [r3]
400098e0:	e2033004 	and	r3, r3, #4
400098e4:	e3530000 	cmp	r3, #0
400098e8:	0a000005 	beq	40009904 <eint16_31_int+0x34>
400098ec:	e3a00032 	mov	r0, #50	; 0x32
400098f0:	e3a01004 	mov	r1, #4
400098f4:	eb00019a 	bl	40009f64 <timer4_start>
400098f8:	e59f301c 	ldr	r3, [pc, #28]	; 4000991c <eint16_31_int+0x4c>
400098fc:	e3a02004 	mov	r2, #4
40009900:	e5832000 	str	r2, [r3]
40009904:	e59f3014 	ldr	r3, [pc, #20]	; 40009920 <eint16_31_int+0x50>
40009908:	e3a02301 	mov	r2, #67108864	; 0x4000000
4000990c:	e5832004 	str	r2, [r3, #4]
40009910:	e24bd004 	sub	sp, fp, #4
40009914:	e8bd4800 	pop	{fp, lr}
40009918:	e12fff1e 	bx	lr
4000991c:	11000f4c 	tstne	r0, ip, asr #30
40009920:	10490280 	subne	r0, r9, r0, lsl #5

40009924 <key4_init>:
40009924:	e92d4800 	push	{fp, lr}
40009928:	e28db004 	add	fp, sp, #4
4000992c:	eb0001ae 	bl	40009fec <timer4_open>
40009930:	e59f30bc 	ldr	r3, [pc, #188]	; 400099f4 <key4_init+0xd0>
40009934:	e59f20b8 	ldr	r2, [pc, #184]	; 400099f4 <key4_init+0xd0>
40009938:	e5922000 	ldr	r2, [r2]
4000993c:	e3822c0f 	orr	r2, r2, #3840	; 0xf00
40009940:	e5832000 	str	r2, [r3]
40009944:	e59f30ac 	ldr	r3, [pc, #172]	; 400099f8 <key4_init+0xd4>
40009948:	e59f20a8 	ldr	r2, [pc, #168]	; 400099f8 <key4_init+0xd4>
4000994c:	e5922000 	ldr	r2, [r2]
40009950:	e3c22c0f 	bic	r2, r2, #3840	; 0xf00
40009954:	e3822c02 	orr	r2, r2, #512	; 0x200
40009958:	e5832000 	str	r2, [r3]
4000995c:	e59f3098 	ldr	r3, [pc, #152]	; 400099fc <key4_init+0xd8>
40009960:	e59f2094 	ldr	r2, [pc, #148]	; 400099fc <key4_init+0xd8>
40009964:	e5922000 	ldr	r2, [r2]
40009968:	e3822502 	orr	r2, r2, #8388608	; 0x800000
4000996c:	e5832000 	str	r2, [r3]
40009970:	e59f3084 	ldr	r3, [pc, #132]	; 400099fc <key4_init+0xd8>
40009974:	e59f2080 	ldr	r2, [pc, #128]	; 400099fc <key4_init+0xd8>
40009978:	e5922000 	ldr	r2, [r2]
4000997c:	e3c22501 	bic	r2, r2, #4194304	; 0x400000
40009980:	e5832000 	str	r2, [r3]
40009984:	e59f3074 	ldr	r3, [pc, #116]	; 40009a00 <key4_init+0xdc>
40009988:	e59f2070 	ldr	r2, [pc, #112]	; 40009a00 <key4_init+0xdc>
4000998c:	e5922000 	ldr	r2, [r2]
40009990:	e3c22004 	bic	r2, r2, #4
40009994:	e5832000 	str	r2, [r3]
40009998:	e59f3064 	ldr	r3, [pc, #100]	; 40009a04 <key4_init+0xe0>
4000999c:	e59f2064 	ldr	r2, [pc, #100]	; 40009a08 <key4_init+0xe4>
400099a0:	e5832100 	str	r2, [r3, #256]	; 0x100
400099a4:	e59f3060 	ldr	r3, [pc, #96]	; 40009a0c <key4_init+0xe8>
400099a8:	e59f205c 	ldr	r2, [pc, #92]	; 40009a0c <key4_init+0xe8>
400099ac:	e5922008 	ldr	r2, [r2, #8]
400099b0:	e3822001 	orr	r2, r2, #1
400099b4:	e5832008 	str	r2, [r3, #8]
400099b8:	e59f3050 	ldr	r3, [pc, #80]	; 40009a10 <key4_init+0xec>
400099bc:	e59f204c 	ldr	r2, [pc, #76]	; 40009a10 <key4_init+0xec>
400099c0:	e5922040 	ldr	r2, [r2, #64]	; 0x40
400099c4:	e3c220ff 	bic	r2, r2, #255	; 0xff
400099c8:	e3822001 	orr	r2, r2, #1
400099cc:	e5832040 	str	r2, [r3, #64]	; 0x40
400099d0:	e59f303c 	ldr	r3, [pc, #60]	; 40009a14 <key4_init+0xf0>
400099d4:	e3a02001 	mov	r2, #1
400099d8:	e5832000 	str	r2, [r3]
400099dc:	e59f3034 	ldr	r3, [pc, #52]	; 40009a18 <key4_init+0xf4>
400099e0:	e3a02001 	mov	r2, #1
400099e4:	e5832000 	str	r2, [r3]
400099e8:	e24bd004 	sub	sp, fp, #4
400099ec:	e8bd4800 	pop	{fp, lr}
400099f0:	e12fff1e 	bx	lr
400099f4:	11000c60 	tstne	r0, r0, ror #24
400099f8:	11000e0c 	tstne	r0, ip, lsl #28
400099fc:	11000e98 			; <UNDEFINED> instruction: 0x11000e98
40009a00:	11000f0c 	tstne	r0, ip, lsl #30
40009a04:	4000ab80 	andmi	sl, r0, r0, lsl #23
40009a08:	400098d0 	ldrdmi	r9, [r0], -r0
40009a0c:	10490100 	subne	r0, r9, r0, lsl #2
40009a10:	10490800 	subne	r0, r9, r0, lsl #16
40009a14:	10490000 	subne	r0, r9, r0
40009a18:	10480000 	subne	r0, r8, r0

40009a1c <mydelay_ms>:
40009a1c:	e52db004 	push	{fp}		; (str fp, [sp, #-4]!)
40009a20:	e28db000 	add	fp, sp, #0
40009a24:	e24dd00c 	sub	sp, sp, #12
40009a28:	e50b000c 	str	r0, [fp, #-12]
40009a2c:	ea000012 	b	40009a7c <mydelay_ms+0x60>
40009a30:	e3a03000 	mov	r3, #0
40009a34:	e50b3004 	str	r3, [fp, #-4]
40009a38:	ea00000c 	b	40009a70 <mydelay_ms+0x54>
40009a3c:	e3a03000 	mov	r3, #0
40009a40:	e50b3008 	str	r3, [fp, #-8]
40009a44:	ea000002 	b	40009a54 <mydelay_ms+0x38>
40009a48:	e51b3008 	ldr	r3, [fp, #-8]
40009a4c:	e2833001 	add	r3, r3, #1
40009a50:	e50b3008 	str	r3, [fp, #-8]
40009a54:	e51b2008 	ldr	r2, [fp, #-8]
40009a58:	e59f3050 	ldr	r3, [pc, #80]	; 40009ab0 <mydelay_ms+0x94>
40009a5c:	e1520003 	cmp	r2, r3
40009a60:	dafffff8 	ble	40009a48 <mydelay_ms+0x2c>
40009a64:	e51b3004 	ldr	r3, [fp, #-4]
40009a68:	e2833001 	add	r3, r3, #1
40009a6c:	e50b3004 	str	r3, [fp, #-4]
40009a70:	e51b3004 	ldr	r3, [fp, #-4]
40009a74:	e3530004 	cmp	r3, #4
40009a78:	daffffef 	ble	40009a3c <mydelay_ms+0x20>
40009a7c:	e51b300c 	ldr	r3, [fp, #-12]
40009a80:	e3530000 	cmp	r3, #0
40009a84:	03a03000 	moveq	r3, #0
40009a88:	13a03001 	movne	r3, #1
40009a8c:	e20330ff 	and	r3, r3, #255	; 0xff
40009a90:	e51b200c 	ldr	r2, [fp, #-12]
40009a94:	e2422001 	sub	r2, r2, #1
40009a98:	e50b200c 	str	r2, [fp, #-12]
40009a9c:	e3530000 	cmp	r3, #0
40009aa0:	1affffe2 	bne	40009a30 <mydelay_ms+0x14>
40009aa4:	e28bd000 	add	sp, fp, #0
40009aa8:	e8bd0800 	pop	{fp}
40009aac:	e12fff1e 	bx	lr
40009ab0:	00000201 	andeq	r0, r0, r1, lsl #4

40009ab4 <mydelay_10us>:
40009ab4:	e52db004 	push	{fp}		; (str fp, [sp, #-4]!)
40009ab8:	e28db000 	add	fp, sp, #0
40009abc:	e24dd00c 	sub	sp, sp, #12
40009ac0:	e50b000c 	str	r0, [fp, #-12]
40009ac4:	ea000011 	b	40009b10 <mydelay_10us+0x5c>
40009ac8:	e3a03000 	mov	r3, #0
40009acc:	e50b3004 	str	r3, [fp, #-4]
40009ad0:	ea00000b 	b	40009b04 <mydelay_10us+0x50>
40009ad4:	e3a03000 	mov	r3, #0
40009ad8:	e50b3008 	str	r3, [fp, #-8]
40009adc:	ea000002 	b	40009aec <mydelay_10us+0x38>
40009ae0:	e51b3008 	ldr	r3, [fp, #-8]
40009ae4:	e2833001 	add	r3, r3, #1
40009ae8:	e50b3008 	str	r3, [fp, #-8]
40009aec:	e51b3008 	ldr	r3, [fp, #-8]
40009af0:	e3530004 	cmp	r3, #4
40009af4:	dafffff9 	ble	40009ae0 <mydelay_10us+0x2c>
40009af8:	e51b3004 	ldr	r3, [fp, #-4]
40009afc:	e2833001 	add	r3, r3, #1
40009b00:	e50b3004 	str	r3, [fp, #-4]
40009b04:	e51b3004 	ldr	r3, [fp, #-4]
40009b08:	e3530004 	cmp	r3, #4
40009b0c:	dafffff0 	ble	40009ad4 <mydelay_10us+0x20>
40009b10:	e51b300c 	ldr	r3, [fp, #-12]
40009b14:	e3530000 	cmp	r3, #0
40009b18:	03a03000 	moveq	r3, #0
40009b1c:	13a03001 	movne	r3, #1
40009b20:	e20330ff 	and	r3, r3, #255	; 0xff
40009b24:	e51b200c 	ldr	r2, [fp, #-12]
40009b28:	e2422001 	sub	r2, r2, #1
40009b2c:	e50b200c 	str	r2, [fp, #-12]
40009b30:	e3530000 	cmp	r3, #0
40009b34:	1affffe3 	bne	40009ac8 <mydelay_10us+0x14>
40009b38:	e28bd000 	add	sp, fp, #0
40009b3c:	e8bd0800 	pop	{fp}
40009b40:	e12fff1e 	bx	lr

40009b44 <do_irq>:
40009b44:	e92d4800 	push	{fp, lr}
40009b48:	e28db004 	add	fp, sp, #4
40009b4c:	e24dd004 	sub	sp, sp, #4
40009b50:	e59f3064 	ldr	r3, [pc, #100]	; 40009bbc <do_irq+0x78>
40009b54:	e593300c 	ldr	r3, [r3, #12]
40009b58:	e1a03b03 	lsl	r3, r3, #22
40009b5c:	e1a03b23 	lsr	r3, r3, #22
40009b60:	e50b3008 	str	r3, [fp, #-8]
40009b64:	e59f0054 	ldr	r0, [pc, #84]	; 40009bc0 <do_irq+0x7c>
40009b68:	e51b1008 	ldr	r1, [fp, #-8]
40009b6c:	ebfffe1b 	bl	400093e0 <printf>
40009b70:	e51b3008 	ldr	r3, [fp, #-8]
40009b74:	e353009f 	cmp	r3, #159	; 0x9f
40009b78:	ca000004 	bgt	40009b90 <do_irq+0x4c>
40009b7c:	e59f3040 	ldr	r3, [pc, #64]	; 40009bc4 <do_irq+0x80>
40009b80:	e51b2008 	ldr	r2, [fp, #-8]
40009b84:	e7933102 	ldr	r3, [r3, r2, lsl #2]
40009b88:	e1a0e00f 	mov	lr, pc
40009b8c:	e12fff13 	bx	r3
40009b90:	e59f2024 	ldr	r2, [pc, #36]	; 40009bbc <do_irq+0x78>
40009b94:	e59f3020 	ldr	r3, [pc, #32]	; 40009bbc <do_irq+0x78>
40009b98:	e5933010 	ldr	r3, [r3, #16]
40009b9c:	e3c33fff 	bic	r3, r3, #1020	; 0x3fc
40009ba0:	e3c33003 	bic	r3, r3, #3
40009ba4:	e51b1008 	ldr	r1, [fp, #-8]
40009ba8:	e1833001 	orr	r3, r3, r1
40009bac:	e5823010 	str	r3, [r2, #16]
40009bb0:	e24bd004 	sub	sp, fp, #4
40009bb4:	e8bd4800 	pop	{fp, lr}
40009bb8:	e12fff1e 	bx	lr
40009bbc:	10480000 	subne	r0, r8, r0
40009bc0:	4000a1e4 	andmi	sl, r0, r4, ror #3
40009bc4:	4000ab80 	andmi	sl, r0, r0, lsl #23

40009bc8 <main>:
40009bc8:	e92d4800 	push	{fp, lr}
40009bcc:	e28db004 	add	fp, sp, #4
40009bd0:	e24dd008 	sub	sp, sp, #8
40009bd4:	ebfffe5a 	bl	40009544 <beep_init>
40009bd8:	ebfffe16 	bl	40009438 <uart_init>
40009bdc:	ebfffece 	bl	4000971c <key_init>
40009be0:	ebffff4f 	bl	40009924 <key4_init>
40009be4:	ea000000 	b	40009bec <main+0x24>
40009be8:	e1a00000 	nop			; (mov r0, r0)
40009bec:	e59f203c 	ldr	r2, [pc, #60]	; 40009c30 <main+0x68>
40009bf0:	e51b3008 	ldr	r3, [fp, #-8]
40009bf4:	e0823003 	add	r3, r2, r3
40009bf8:	e5d33000 	ldrb	r3, [r3]
40009bfc:	e50b300c 	str	r3, [fp, #-12]
40009c00:	e51b000c 	ldr	r0, [fp, #-12]
40009c04:	e3a01f4b 	mov	r1, #300	; 0x12c
40009c08:	ebfffe85 	bl	40009624 <beep_short>
40009c0c:	e51b3008 	ldr	r3, [fp, #-8]
40009c10:	e2833001 	add	r3, r3, #1
40009c14:	e50b3008 	str	r3, [fp, #-8]
40009c18:	e51b3008 	ldr	r3, [fp, #-8]
40009c1c:	e353008f 	cmp	r3, #143	; 0x8f
40009c20:	dafffff0 	ble	40009be8 <main+0x20>
40009c24:	e3a03000 	mov	r3, #0
40009c28:	e50b3008 	str	r3, [fp, #-8]
40009c2c:	eaffffed 	b	40009be8 <main+0x20>
40009c30:	4000a11c 	andmi	sl, r0, ip, lsl r1

40009c34 <liushuideng>:
40009c34:	e92d4800 	push	{fp, lr}
40009c38:	e28db004 	add	fp, sp, #4
40009c3c:	e24dd004 	sub	sp, sp, #4
40009c40:	e59f31b4 	ldr	r3, [pc, #436]	; 40009dfc <liushuideng+0x1c8>
40009c44:	e59f21b0 	ldr	r2, [pc, #432]	; 40009dfc <liushuideng+0x1c8>
40009c48:	e5922000 	ldr	r2, [r2]
40009c4c:	e3c2260f 	bic	r2, r2, #15728640	; 0xf00000
40009c50:	e3822601 	orr	r2, r2, #1048576	; 0x100000
40009c54:	e5832000 	str	r2, [r3]
40009c58:	e59f319c 	ldr	r3, [pc, #412]	; 40009dfc <liushuideng+0x1c8>
40009c5c:	e59f2198 	ldr	r2, [pc, #408]	; 40009dfc <liushuideng+0x1c8>
40009c60:	e5922004 	ldr	r2, [r2, #4]
40009c64:	e3822020 	orr	r2, r2, #32
40009c68:	e5832004 	str	r2, [r3, #4]
40009c6c:	e59f3188 	ldr	r3, [pc, #392]	; 40009dfc <liushuideng+0x1c8>
40009c70:	e59f2184 	ldr	r2, [pc, #388]	; 40009dfc <liushuideng+0x1c8>
40009c74:	e5922000 	ldr	r2, [r2]
40009c78:	e3c2280f 	bic	r2, r2, #983040	; 0xf0000
40009c7c:	e3822801 	orr	r2, r2, #65536	; 0x10000
40009c80:	e5832000 	str	r2, [r3]
40009c84:	e59f3170 	ldr	r3, [pc, #368]	; 40009dfc <liushuideng+0x1c8>
40009c88:	e59f216c 	ldr	r2, [pc, #364]	; 40009dfc <liushuideng+0x1c8>
40009c8c:	e5922004 	ldr	r2, [r2, #4]
40009c90:	e3822010 	orr	r2, r2, #16
40009c94:	e5832004 	str	r2, [r3, #4]
40009c98:	e59f3160 	ldr	r3, [pc, #352]	; 40009e00 <liushuideng+0x1cc>
40009c9c:	e59f215c 	ldr	r2, [pc, #348]	; 40009e00 <liushuideng+0x1cc>
40009ca0:	e5922000 	ldr	r2, [r2]
40009ca4:	e3c2200f 	bic	r2, r2, #15
40009ca8:	e3822001 	orr	r2, r2, #1
40009cac:	e5832000 	str	r2, [r3]
40009cb0:	e59f3148 	ldr	r3, [pc, #328]	; 40009e00 <liushuideng+0x1cc>
40009cb4:	e59f2144 	ldr	r2, [pc, #324]	; 40009e00 <liushuideng+0x1cc>
40009cb8:	e5922004 	ldr	r2, [r2, #4]
40009cbc:	e3822001 	orr	r2, r2, #1
40009cc0:	e5832004 	str	r2, [r3, #4]
40009cc4:	e59f3138 	ldr	r3, [pc, #312]	; 40009e04 <liushuideng+0x1d0>
40009cc8:	e59f2134 	ldr	r2, [pc, #308]	; 40009e04 <liushuideng+0x1d0>
40009ccc:	e5922000 	ldr	r2, [r2]
40009cd0:	e3c2220f 	bic	r2, r2, #-268435456	; 0xf0000000
40009cd4:	e3822201 	orr	r2, r2, #268435456	; 0x10000000
40009cd8:	e5832000 	str	r2, [r3]
40009cdc:	e59f3120 	ldr	r3, [pc, #288]	; 40009e04 <liushuideng+0x1d0>
40009ce0:	e59f211c 	ldr	r2, [pc, #284]	; 40009e04 <liushuideng+0x1d0>
40009ce4:	e5922004 	ldr	r2, [r2, #4]
40009ce8:	e3c22080 	bic	r2, r2, #128	; 0x80
40009cec:	e5832004 	str	r2, [r3, #4]
40009cf0:	e3a03002 	mov	r3, #2
40009cf4:	e50b3008 	str	r3, [fp, #-8]
40009cf8:	e59f30fc 	ldr	r3, [pc, #252]	; 40009dfc <liushuideng+0x1c8>
40009cfc:	e59f20f8 	ldr	r2, [pc, #248]	; 40009dfc <liushuideng+0x1c8>
40009d00:	e5922004 	ldr	r2, [r2, #4]
40009d04:	e3c22020 	bic	r2, r2, #32
40009d08:	e5832004 	str	r2, [r3, #4]
40009d0c:	e59f30e8 	ldr	r3, [pc, #232]	; 40009dfc <liushuideng+0x1c8>
40009d10:	e59f20e4 	ldr	r2, [pc, #228]	; 40009dfc <liushuideng+0x1c8>
40009d14:	e5922004 	ldr	r2, [r2, #4]
40009d18:	e3c22010 	bic	r2, r2, #16
40009d1c:	e5832004 	str	r2, [r3, #4]
40009d20:	e59f30d8 	ldr	r3, [pc, #216]	; 40009e00 <liushuideng+0x1cc>
40009d24:	e59f20d4 	ldr	r2, [pc, #212]	; 40009e00 <liushuideng+0x1cc>
40009d28:	e5922004 	ldr	r2, [r2, #4]
40009d2c:	e3c22001 	bic	r2, r2, #1
40009d30:	e5832004 	str	r2, [r3, #4]
40009d34:	e59f30c8 	ldr	r3, [pc, #200]	; 40009e04 <liushuideng+0x1d0>
40009d38:	e59f20c4 	ldr	r2, [pc, #196]	; 40009e04 <liushuideng+0x1d0>
40009d3c:	e5922004 	ldr	r2, [r2, #4]
40009d40:	e3c22080 	bic	r2, r2, #128	; 0x80
40009d44:	e5832004 	str	r2, [r3, #4]
40009d48:	e51b3008 	ldr	r3, [fp, #-8]
40009d4c:	e2433002 	sub	r3, r3, #2
40009d50:	e3530003 	cmp	r3, #3
40009d54:	979ff103 	ldrls	pc, [pc, r3, lsl #2]
40009d58:	ea00001b 	b	40009dcc <liushuideng+0x198>
40009d5c:	40009d6c 	andmi	r9, r0, ip, ror #26
40009d60:	40009d84 	andmi	r9, r0, r4, lsl #27
40009d64:	40009d9c 	mulmi	r0, ip, sp
40009d68:	40009db4 			; <UNDEFINED> instruction: 0x40009db4
40009d6c:	e59f3090 	ldr	r3, [pc, #144]	; 40009e04 <liushuideng+0x1d0>
40009d70:	e59f208c 	ldr	r2, [pc, #140]	; 40009e04 <liushuideng+0x1d0>
40009d74:	e5922004 	ldr	r2, [r2, #4]
40009d78:	e3822080 	orr	r2, r2, #128	; 0x80
40009d7c:	e5832004 	str	r2, [r3, #4]
40009d80:	ea000012 	b	40009dd0 <liushuideng+0x19c>
40009d84:	e59f3074 	ldr	r3, [pc, #116]	; 40009e00 <liushuideng+0x1cc>
40009d88:	e59f2070 	ldr	r2, [pc, #112]	; 40009e00 <liushuideng+0x1cc>
40009d8c:	e5922004 	ldr	r2, [r2, #4]
40009d90:	e3822001 	orr	r2, r2, #1
40009d94:	e5832004 	str	r2, [r3, #4]
40009d98:	ea00000c 	b	40009dd0 <liushuideng+0x19c>
40009d9c:	e59f3058 	ldr	r3, [pc, #88]	; 40009dfc <liushuideng+0x1c8>
40009da0:	e59f2054 	ldr	r2, [pc, #84]	; 40009dfc <liushuideng+0x1c8>
40009da4:	e5922004 	ldr	r2, [r2, #4]
40009da8:	e3822010 	orr	r2, r2, #16
40009dac:	e5832004 	str	r2, [r3, #4]
40009db0:	ea000006 	b	40009dd0 <liushuideng+0x19c>
40009db4:	e59f3040 	ldr	r3, [pc, #64]	; 40009dfc <liushuideng+0x1c8>
40009db8:	e59f203c 	ldr	r2, [pc, #60]	; 40009dfc <liushuideng+0x1c8>
40009dbc:	e5922004 	ldr	r2, [r2, #4]
40009dc0:	e3822020 	orr	r2, r2, #32
40009dc4:	e5832004 	str	r2, [r3, #4]
40009dc8:	ea000000 	b	40009dd0 <liushuideng+0x19c>
40009dcc:	e1a00000 	nop			; (mov r0, r0)
40009dd0:	e51b3008 	ldr	r3, [fp, #-8]
40009dd4:	e2833001 	add	r3, r3, #1
40009dd8:	e50b3008 	str	r3, [fp, #-8]
40009ddc:	e51b3008 	ldr	r3, [fp, #-8]
40009de0:	e3530005 	cmp	r3, #5
40009de4:	da000001 	ble	40009df0 <liushuideng+0x1bc>
40009de8:	e3a03002 	mov	r3, #2
40009dec:	e50b3008 	str	r3, [fp, #-8]
40009df0:	e3a00f7d 	mov	r0, #500	; 0x1f4
40009df4:	ebffff08 	bl	40009a1c <mydelay_ms>
40009df8:	eaffffbe 	b	40009cf8 <liushuideng+0xc4>
40009dfc:	114001e0 	smlalttne	r0, r0, r0, r1	; <UNPREDICTABLE>
40009e00:	11000c20 	tstne	r0, r0, lsr #24
40009e04:	11000c40 	tstne	r0, r0, asr #24

40009e08 <timer4_int>:
40009e08:	e92d4800 	push	{fp, lr}
40009e0c:	e28db004 	add	fp, sp, #4
40009e10:	e59f312c 	ldr	r3, [pc, #300]	; 40009f44 <timer4_int+0x13c>
40009e14:	e5933000 	ldr	r3, [r3]
40009e18:	e2433002 	sub	r3, r3, #2
40009e1c:	e3530012 	cmp	r3, #18
40009e20:	979ff103 	ldrls	pc, [pc, r3, lsl #2]
40009e24:	ea00003a 	b	40009f14 <timer4_int+0x10c>
40009e28:	40009e74 	andmi	r9, r0, r4, ror lr
40009e2c:	40009ea0 	andmi	r9, r0, r0, lsr #29
40009e30:	40009ecc 	andmi	r9, r0, ip, asr #29
40009e34:	40009f14 	andmi	r9, r0, r4, lsl pc
40009e38:	40009f14 	andmi	r9, r0, r4, lsl pc
40009e3c:	40009f14 	andmi	r9, r0, r4, lsl pc
40009e40:	40009f14 	andmi	r9, r0, r4, lsl pc
40009e44:	40009f14 	andmi	r9, r0, r4, lsl pc
40009e48:	40009f14 	andmi	r9, r0, r4, lsl pc
40009e4c:	40009f14 	andmi	r9, r0, r4, lsl pc
40009e50:	40009f14 	andmi	r9, r0, r4, lsl pc
40009e54:	40009f14 	andmi	r9, r0, r4, lsl pc
40009e58:	40009f14 	andmi	r9, r0, r4, lsl pc
40009e5c:	40009f14 	andmi	r9, r0, r4, lsl pc
40009e60:	40009f14 	andmi	r9, r0, r4, lsl pc
40009e64:	40009f14 	andmi	r9, r0, r4, lsl pc
40009e68:	40009f14 	andmi	r9, r0, r4, lsl pc
40009e6c:	40009f14 	andmi	r9, r0, r4, lsl pc
40009e70:	40009ef8 	strdmi	r9, [r0], -r8
40009e74:	e59f30cc 	ldr	r3, [pc, #204]	; 40009f48 <timer4_int+0x140>
40009e78:	e5933004 	ldr	r3, [r3, #4]
40009e7c:	e2033002 	and	r3, r3, #2
40009e80:	e3530000 	cmp	r3, #0
40009e84:	1a00001d 	bne	40009f00 <timer4_int+0xf8>
40009e88:	e59f00bc 	ldr	r0, [pc, #188]	; 40009f4c <timer4_int+0x144>
40009e8c:	ebfffd53 	bl	400093e0 <printf>
40009e90:	e3a00001 	mov	r0, #1
40009e94:	e3a01f4b 	mov	r1, #300	; 0x12c
40009e98:	ebfffde1 	bl	40009624 <beep_short>
40009e9c:	ea000017 	b	40009f00 <timer4_int+0xf8>
40009ea0:	e59f30a0 	ldr	r3, [pc, #160]	; 40009f48 <timer4_int+0x140>
40009ea4:	e5933004 	ldr	r3, [r3, #4]
40009ea8:	e2033004 	and	r3, r3, #4
40009eac:	e3530000 	cmp	r3, #0
40009eb0:	1a000014 	bne	40009f08 <timer4_int+0x100>
40009eb4:	e59f0094 	ldr	r0, [pc, #148]	; 40009f50 <timer4_int+0x148>
40009eb8:	ebfffd48 	bl	400093e0 <printf>
40009ebc:	e3a00002 	mov	r0, #2
40009ec0:	e3a01f4b 	mov	r1, #300	; 0x12c
40009ec4:	ebfffdd6 	bl	40009624 <beep_short>
40009ec8:	ea00000e 	b	40009f08 <timer4_int+0x100>
40009ecc:	e59f3080 	ldr	r3, [pc, #128]	; 40009f54 <timer4_int+0x14c>
40009ed0:	e5933004 	ldr	r3, [r3, #4]
40009ed4:	e2033004 	and	r3, r3, #4
40009ed8:	e3530000 	cmp	r3, #0
40009edc:	1a00000b 	bne	40009f10 <timer4_int+0x108>
40009ee0:	e59f0070 	ldr	r0, [pc, #112]	; 40009f58 <timer4_int+0x150>
40009ee4:	ebfffd3d 	bl	400093e0 <printf>
40009ee8:	e3a00003 	mov	r0, #3
40009eec:	e3a01f4b 	mov	r1, #300	; 0x12c
40009ef0:	ebfffdcb 	bl	40009624 <beep_short>
40009ef4:	ea000005 	b	40009f10 <timer4_int+0x108>
40009ef8:	ebfffdd6 	bl	40009658 <beep_off>
40009efc:	ea000004 	b	40009f14 <timer4_int+0x10c>
40009f00:	e1a00000 	nop			; (mov r0, r0)
40009f04:	ea000002 	b	40009f14 <timer4_int+0x10c>
40009f08:	e1a00000 	nop			; (mov r0, r0)
40009f0c:	ea000000 	b	40009f14 <timer4_int+0x10c>
40009f10:	e1a00000 	nop			; (mov r0, r0)
40009f14:	e59f3040 	ldr	r3, [pc, #64]	; 40009f5c <timer4_int+0x154>
40009f18:	e59f203c 	ldr	r2, [pc, #60]	; 40009f5c <timer4_int+0x154>
40009f1c:	e5922044 	ldr	r2, [r2, #68]	; 0x44
40009f20:	e202201f 	and	r2, r2, #31
40009f24:	e3822c02 	orr	r2, r2, #512	; 0x200
40009f28:	e5832044 	str	r2, [r3, #68]	; 0x44
40009f2c:	e59f302c 	ldr	r3, [pc, #44]	; 40009f60 <timer4_int+0x158>
40009f30:	e3a02c02 	mov	r2, #512	; 0x200
40009f34:	e5832008 	str	r2, [r3, #8]
40009f38:	e24bd004 	sub	sp, fp, #4
40009f3c:	e8bd4800 	pop	{fp, lr}
40009f40:	e12fff1e 	bx	lr
40009f44:	4000ae00 	andmi	sl, r0, r0, lsl #28
40009f48:	11000c20 	tstne	r0, r0, lsr #24
40009f4c:	4000a1f8 	strdmi	sl, [r0], -r8
40009f50:	4000a21c 	andmi	sl, r0, ip, lsl r2
40009f54:	11000c60 	tstne	r0, r0, ror #24
40009f58:	4000a240 	andmi	sl, r0, r0, asr #4
40009f5c:	139d0000 	orrsne	r0, sp, #0
40009f60:	10490280 	subne	r0, r9, r0, lsl #5

40009f64 <timer4_start>:
40009f64:	e52db004 	push	{fp}		; (str fp, [sp, #-4]!)
40009f68:	e28db000 	add	fp, sp, #0
40009f6c:	e24dd008 	sub	sp, sp, #8
40009f70:	e50b0004 	str	r0, [fp, #-4]
40009f74:	e50b1008 	str	r1, [fp, #-8]
40009f78:	e59f1064 	ldr	r1, [pc, #100]	; 40009fe4 <timer4_start+0x80>
40009f7c:	e51b2004 	ldr	r2, [fp, #-4]
40009f80:	e1a03002 	mov	r3, r2
40009f84:	e1a03283 	lsl	r3, r3, #5
40009f88:	e0623003 	rsb	r3, r2, r3
40009f8c:	e1a03103 	lsl	r3, r3, #2
40009f90:	e0833002 	add	r3, r3, r2
40009f94:	e1a03183 	lsl	r3, r3, #3
40009f98:	e581303c 	str	r3, [r1, #60]	; 0x3c
40009f9c:	e59f3040 	ldr	r3, [pc, #64]	; 40009fe4 <timer4_start+0x80>
40009fa0:	e59f203c 	ldr	r2, [pc, #60]	; 40009fe4 <timer4_start+0x80>
40009fa4:	e5922008 	ldr	r2, [r2, #8]
40009fa8:	e3c2260f 	bic	r2, r2, #15728640	; 0xf00000
40009fac:	e3822606 	orr	r2, r2, #6291456	; 0x600000
40009fb0:	e5832008 	str	r2, [r3, #8]
40009fb4:	e59f3028 	ldr	r3, [pc, #40]	; 40009fe4 <timer4_start+0x80>
40009fb8:	e59f2024 	ldr	r2, [pc, #36]	; 40009fe4 <timer4_start+0x80>
40009fbc:	e5922008 	ldr	r2, [r2, #8]
40009fc0:	e3c2260f 	bic	r2, r2, #15728640	; 0xf00000
40009fc4:	e3822601 	orr	r2, r2, #1048576	; 0x100000
40009fc8:	e5832008 	str	r2, [r3, #8]
40009fcc:	e59f3014 	ldr	r3, [pc, #20]	; 40009fe8 <timer4_start+0x84>
40009fd0:	e51b2008 	ldr	r2, [fp, #-8]
40009fd4:	e5832000 	str	r2, [r3]
40009fd8:	e28bd000 	add	sp, fp, #0
40009fdc:	e8bd0800 	pop	{fp}
40009fe0:	e12fff1e 	bx	lr
40009fe4:	139d0000 	orrsne	r0, sp, #0
40009fe8:	4000ae00 	andmi	sl, r0, r0, lsl #28

40009fec <timer4_open>:
40009fec:	e52db004 	push	{fp}		; (str fp, [sp, #-4]!)
40009ff0:	e28db000 	add	fp, sp, #0
40009ff4:	e59f30ac 	ldr	r3, [pc, #172]	; 4000a0a8 <timer4_open+0xbc>
40009ff8:	e59f20a8 	ldr	r2, [pc, #168]	; 4000a0a8 <timer4_open+0xbc>
40009ffc:	e5922000 	ldr	r2, [r2]
4000a000:	e3c22cff 	bic	r2, r2, #65280	; 0xff00
4000a004:	e3822c63 	orr	r2, r2, #25344	; 0x6300
4000a008:	e5832000 	str	r2, [r3]
4000a00c:	e59f3094 	ldr	r3, [pc, #148]	; 4000a0a8 <timer4_open+0xbc>
4000a010:	e59f2090 	ldr	r2, [pc, #144]	; 4000a0a8 <timer4_open+0xbc>
4000a014:	e5922004 	ldr	r2, [r2, #4]
4000a018:	e3c2280f 	bic	r2, r2, #983040	; 0xf0000
4000a01c:	e5832004 	str	r2, [r3, #4]
4000a020:	e59f3080 	ldr	r3, [pc, #128]	; 4000a0a8 <timer4_open+0xbc>
4000a024:	e59f207c 	ldr	r2, [pc, #124]	; 4000a0a8 <timer4_open+0xbc>
4000a028:	e5922008 	ldr	r2, [r2, #8]
4000a02c:	e3c2260f 	bic	r2, r2, #15728640	; 0xf00000
4000a030:	e5832008 	str	r2, [r3, #8]
4000a034:	e59f306c 	ldr	r3, [pc, #108]	; 4000a0a8 <timer4_open+0xbc>
4000a038:	e59f2068 	ldr	r2, [pc, #104]	; 4000a0a8 <timer4_open+0xbc>
4000a03c:	e5922044 	ldr	r2, [r2, #68]	; 0x44
4000a040:	e202200f 	and	r2, r2, #15
4000a044:	e3822010 	orr	r2, r2, #16
4000a048:	e5832044 	str	r2, [r3, #68]	; 0x44
4000a04c:	e59f3058 	ldr	r3, [pc, #88]	; 4000a0ac <timer4_open+0xc0>
4000a050:	e59f2058 	ldr	r2, [pc, #88]	; 4000a0b0 <timer4_open+0xc4>
4000a054:	e5832124 	str	r2, [r3, #292]	; 0x124
4000a058:	e59f3054 	ldr	r3, [pc, #84]	; 4000a0b4 <timer4_open+0xc8>
4000a05c:	e59f2050 	ldr	r2, [pc, #80]	; 4000a0b4 <timer4_open+0xc8>
4000a060:	e5922008 	ldr	r2, [r2, #8]
4000a064:	e3822c02 	orr	r2, r2, #512	; 0x200
4000a068:	e5832008 	str	r2, [r3, #8]
4000a06c:	e59f3044 	ldr	r3, [pc, #68]	; 4000a0b8 <timer4_open+0xcc>
4000a070:	e59f2040 	ldr	r2, [pc, #64]	; 4000a0b8 <timer4_open+0xcc>
4000a074:	e5922048 	ldr	r2, [r2, #72]	; 0x48
4000a078:	e3c22cff 	bic	r2, r2, #65280	; 0xff00
4000a07c:	e3822c01 	orr	r2, r2, #256	; 0x100
4000a080:	e5832048 	str	r2, [r3, #72]	; 0x48
4000a084:	e59f3030 	ldr	r3, [pc, #48]	; 4000a0bc <timer4_open+0xd0>
4000a088:	e3a02001 	mov	r2, #1
4000a08c:	e5832000 	str	r2, [r3]
4000a090:	e59f3028 	ldr	r3, [pc, #40]	; 4000a0c0 <timer4_open+0xd4>
4000a094:	e3a02001 	mov	r2, #1
4000a098:	e5832000 	str	r2, [r3]
4000a09c:	e28bd000 	add	sp, fp, #0
4000a0a0:	e8bd0800 	pop	{fp}
4000a0a4:	e12fff1e 	bx	lr
4000a0a8:	139d0000 	orrsne	r0, sp, #0
4000a0ac:	4000ab80 	andmi	sl, r0, r0, lsl #23
4000a0b0:	40009e08 	andmi	r9, r0, r8, lsl #28
4000a0b4:	10490100 	subne	r0, r9, r0, lsl #2
4000a0b8:	10490800 	subne	r0, r9, r0, lsl #16
4000a0bc:	10490000 	subne	r0, r9, r0
4000a0c0:	10480000 	subne	r0, r8, r0

Disassembly of section .rodata:

4000a0c4 <b-0x58>:
4000a0c4:	33323130 	teqcc	r2, #12
4000a0c8:	37363534 			; <UNDEFINED> instruction: 0x37363534
4000a0cc:	62613938 	rsbvs	r3, r1, #917504	; 0xe0000
4000a0d0:	66656463 	strbtvs	r6, [r5], -r3, ror #8
4000a0d4:	6a696867 	bvs	41a64278 <key_number+0x1a59478>
4000a0d8:	6e6d6c6b 	cdpvs	12, 6, cr6, cr13, cr11, {3}
4000a0dc:	7271706f 	rsbsvc	r7, r1, #111	; 0x6f
4000a0e0:	76757473 			; <UNDEFINED> instruction: 0x76757473
4000a0e4:	7a797877 	bvc	41e682c8 <key_number+0x1e5d4c8>
4000a0e8:	00000000 	andeq	r0, r0, r0
4000a0ec:	33323130 	teqcc	r2, #12
4000a0f0:	37363534 			; <UNDEFINED> instruction: 0x37363534
4000a0f4:	42413938 	submi	r3, r1, #917504	; 0xe0000
4000a0f8:	46454443 	strbmi	r4, [r5], -r3, asr #8
4000a0fc:	4a494847 	bmi	4125c220 <key_number+0x1251420>
4000a100:	4e4d4c4b 	cdpmi	12, 4, cr4, cr13, cr11, {2}
4000a104:	5251504f 	subspl	r5, r1, #79	; 0x4f
4000a108:	56555453 			; <UNDEFINED> instruction: 0x56555453
4000a10c:	5a595857 	bpl	41660270 <key_number+0x1655470>
4000a110:	00000000 	andeq	r0, r0, r0
4000a114:	4c554e3c 	mrrcmi	14, 3, r4, r5, cr12
4000a118:	00003e4c 	andeq	r3, r0, ip, asr #28

4000a11c <b>:
4000a11c:	05040305 	streq	r0, [r4, #-773]	; 0x305
4000a120:	05050403 	streq	r0, [r5, #-1027]	; 0x403
4000a124:	02010706 	andeq	r0, r1, #1572864	; 0x180000
4000a128:	01030403 	tsteq	r3, r3, lsl #8
4000a12c:	04030302 	streq	r0, [r3], #-770	; 0x302
4000a130:	04050605 	streq	r0, [r5], #-1541	; 0x605
4000a134:	01070105 	tsteq	r7, r5, lsl #2
4000a138:	06070106 	streq	r0, [r7], -r6, lsl #2
4000a13c:	04050405 	streq	r0, [r5], #-1029	; 0x405
4000a140:	06050403 	streq	r0, [r5], -r3, lsl #8
4000a144:	01060107 	tsteq	r6, r7, lsl #2
4000a148:	01070107 	tsteq	r7, r7, lsl #2
4000a14c:	01070607 	tsteq	r7, r7, lsl #12
4000a150:	05040302 	streq	r0, [r4, #-770]	; 0x302
4000a154:	05040305 	streq	r0, [r4, #-773]	; 0x305
4000a158:	05050403 	streq	r0, [r5, #-1027]	; 0x403
4000a15c:	02010706 	andeq	r0, r1, #1572864	; 0x180000
4000a160:	01030403 	tsteq	r3, r3, lsl #8
4000a164:	04030302 	streq	r0, [r3], #-770	; 0x302
4000a168:	04050605 	streq	r0, [r5], #-1541	; 0x605
4000a16c:	01070105 	tsteq	r7, r5, lsl #2
4000a170:	06070106 	streq	r0, [r7], -r6, lsl #2
4000a174:	04050405 	streq	r0, [r5], #-1029	; 0x405
4000a178:	06050403 	streq	r0, [r5], -r3, lsl #8
4000a17c:	01060701 	tsteq	r6, r1, lsl #14
4000a180:	06070107 	streq	r0, [r7], -r7, lsl #2
4000a184:	01020107 	tsteq	r2, r7, lsl #2
4000a188:	07060107 	streq	r0, [r6, -r7, lsl #2]
4000a18c:	00000001 	andeq	r0, r0, r1
	...
4000a1e4:	5f717269 	svcpl	0x00717269
4000a1e8:	626d756e 	rsbvs	r7, sp, #461373440	; 0x1b800000
4000a1ec:	3d207265 	sfmcc	f7, 4, [r0, #-404]!	; 0xfffffe6c
4000a1f0:	0a642520 	beq	41913678 <key_number+0x1908878>
4000a1f4:	00000000 	andeq	r0, r0, r0
4000a1f8:	2d2d2d2d 	stccs	13, cr2, [sp, #-180]!	; 0xffffff4c
4000a1fc:	2d2d2d2d 	stccs	13, cr2, [sp, #-180]!	; 0xffffff4c
4000a200:	2d2d2d2d 	stccs	13, cr2, [sp, #-180]!	; 0xffffff4c
4000a204:	2d2d2d2d 	stccs	13, cr2, [sp, #-180]!	; 0xffffff4c
4000a208:	2d2d2d2d 	stccs	13, cr2, [sp, #-180]!	; 0xffffff4c
4000a20c:	2d2d2d2d 	stccs	13, cr2, [sp, #-180]!	; 0xffffff4c
4000a210:	2d2d2d2d 	stccs	13, cr2, [sp, #-180]!	; 0xffffff4c
4000a214:	656b2d2d 	strbvs	r2, [fp, #-3373]!	; 0xd2d
4000a218:	000a3279 	andeq	r3, sl, r9, ror r2
4000a21c:	2d2d2d2d 	stccs	13, cr2, [sp, #-180]!	; 0xffffff4c
4000a220:	2d2d2d2d 	stccs	13, cr2, [sp, #-180]!	; 0xffffff4c
4000a224:	2d2d2d2d 	stccs	13, cr2, [sp, #-180]!	; 0xffffff4c
4000a228:	2d2d2d2d 	stccs	13, cr2, [sp, #-180]!	; 0xffffff4c
4000a22c:	2d2d2d2d 	stccs	13, cr2, [sp, #-180]!	; 0xffffff4c
4000a230:	2d2d2d2d 	stccs	13, cr2, [sp, #-180]!	; 0xffffff4c
4000a234:	2d2d2d2d 	stccs	13, cr2, [sp, #-180]!	; 0xffffff4c
4000a238:	656b2d2d 	strbvs	r2, [fp, #-3373]!	; 0xd2d
4000a23c:	000a3379 	andeq	r3, sl, r9, ror r3
4000a240:	2d2d2d2d 	stccs	13, cr2, [sp, #-180]!	; 0xffffff4c
4000a244:	2d2d2d2d 	stccs	13, cr2, [sp, #-180]!	; 0xffffff4c
4000a248:	2d2d2d2d 	stccs	13, cr2, [sp, #-180]!	; 0xffffff4c
4000a24c:	2d2d2d2d 	stccs	13, cr2, [sp, #-180]!	; 0xffffff4c
4000a250:	2d2d2d2d 	stccs	13, cr2, [sp, #-180]!	; 0xffffff4c
4000a254:	2d2d2d2d 	stccs	13, cr2, [sp, #-180]!	; 0xffffff4c
4000a258:	2d2d2d2d 	stccs	13, cr2, [sp, #-180]!	; 0xffffff4c
4000a25c:	656b2d2d 	strbvs	r2, [fp, #-3373]!	; 0xd2d
4000a260:	000a3479 	andeq	r3, sl, r9, ror r4

Disassembly of section .data:

4000a264 <stack>:
	...

4000aa64 <_ctype>:
4000aa64:	08080808 	stmdaeq	r8, {r3, fp}
4000aa68:	08080808 	stmdaeq	r8, {r3, fp}
4000aa6c:	28282808 	stmdacs	r8!, {r3, fp, sp}
4000aa70:	08082828 	stmdaeq	r8, {r3, r5, fp, sp}
4000aa74:	08080808 	stmdaeq	r8, {r3, fp}
4000aa78:	08080808 	stmdaeq	r8, {r3, fp}
4000aa7c:	08080808 	stmdaeq	r8, {r3, fp}
4000aa80:	08080808 	stmdaeq	r8, {r3, fp}
4000aa84:	101010a0 	andsne	r1, r0, r0, lsr #1
4000aa88:	10101010 	andsne	r1, r0, r0, lsl r0
4000aa8c:	10101010 	andsne	r1, r0, r0, lsl r0
4000aa90:	10101010 	andsne	r1, r0, r0, lsl r0
4000aa94:	04040404 	streq	r0, [r4], #-1028	; 0x404
4000aa98:	04040404 	streq	r0, [r4], #-1028	; 0x404
4000aa9c:	10100404 	andsne	r0, r0, r4, lsl #8
4000aaa0:	10101010 	andsne	r1, r0, r0, lsl r0
4000aaa4:	41414110 	cmpmi	r1, r0, lsl r1
4000aaa8:	01414141 	cmpeq	r1, r1, asr #2
4000aaac:	01010101 	tsteq	r1, r1, lsl #2
4000aab0:	01010101 	tsteq	r1, r1, lsl #2
4000aab4:	01010101 	tsteq	r1, r1, lsl #2
4000aab8:	01010101 	tsteq	r1, r1, lsl #2
4000aabc:	10010101 	andne	r0, r1, r1, lsl #2
4000aac0:	10101010 	andsne	r1, r0, r0, lsl r0
4000aac4:	42424210 	submi	r4, r2, #1
4000aac8:	02424242 	subeq	r4, r2, #536870916	; 0x20000004
4000aacc:	02020202 	andeq	r0, r2, #536870912	; 0x20000000
4000aad0:	02020202 	andeq	r0, r2, #536870912	; 0x20000000
4000aad4:	02020202 	andeq	r0, r2, #536870912	; 0x20000000
4000aad8:	02020202 	andeq	r0, r2, #536870912	; 0x20000000
4000aadc:	10020202 	andne	r0, r2, r2, lsl #4
4000aae0:	08101010 	ldmdaeq	r0, {r4, ip}
	...
4000ab04:	101010a0 	andsne	r1, r0, r0, lsr #1
4000ab08:	10101010 	andsne	r1, r0, r0, lsl r0
4000ab0c:	10101010 	andsne	r1, r0, r0, lsl r0
4000ab10:	10101010 	andsne	r1, r0, r0, lsl r0
4000ab14:	10101010 	andsne	r1, r0, r0, lsl r0
4000ab18:	10101010 	andsne	r1, r0, r0, lsl r0
4000ab1c:	10101010 	andsne	r1, r0, r0, lsl r0
4000ab20:	10101010 	andsne	r1, r0, r0, lsl r0
4000ab24:	01010101 	tsteq	r1, r1, lsl #2
4000ab28:	01010101 	tsteq	r1, r1, lsl #2
4000ab2c:	01010101 	tsteq	r1, r1, lsl #2
4000ab30:	01010101 	tsteq	r1, r1, lsl #2
4000ab34:	01010101 	tsteq	r1, r1, lsl #2
4000ab38:	10010101 	andne	r0, r1, r1, lsl #2
4000ab3c:	01010101 	tsteq	r1, r1, lsl #2
4000ab40:	02010101 	andeq	r0, r1, #1073741824	; 0x40000000
4000ab44:	02020202 	andeq	r0, r2, #536870912	; 0x20000000
4000ab48:	02020202 	andeq	r0, r2, #536870912	; 0x20000000
4000ab4c:	02020202 	andeq	r0, r2, #536870912	; 0x20000000
4000ab50:	02020202 	andeq	r0, r2, #536870912	; 0x20000000
4000ab54:	02020202 	andeq	r0, r2, #536870912	; 0x20000000
4000ab58:	10020202 	andne	r0, r2, r2, lsl #4
4000ab5c:	02020202 	andeq	r0, r2, #536870912	; 0x20000000
4000ab60:	02020202 	andeq	r0, r2, #536870912	; 0x20000000

4000ab64 <yinjie.3487>:
4000ab64:	000008e0 	andeq	r0, r0, r0, ror #17
4000ab68:	000007e8 	andeq	r0, r0, r8, ror #15
4000ab6c:	0000070b 	andeq	r0, r0, fp, lsl #14
4000ab70:	000006a6 	andeq	r0, r0, r6, lsr #13
4000ab74:	000005ec 	andeq	r0, r0, ip, ror #11
4000ab78:	00000547 	andeq	r0, r0, r7, asr #10
4000ab7c:	000004b3 			; <UNDEFINED> instruction: 0x000004b3

Disassembly of section .bss:

4000ab80 <fun_p>:
	...

4000ae00 <key_number>:
4000ae00:	00000000 	andeq	r0, r0, r0

Disassembly of section .ARM.attributes:

00000000 <.ARM.attributes>:
   0:	00000f41 	andeq	r0, r0, r1, asr #30
   4:	61656100 	cmnvs	r5, r0, lsl #2
   8:	01006962 	tsteq	r0, r2, ror #18
   c:	00000005 	andeq	r0, r0, r5

Disassembly of section .comment:

00000000 <.comment>:
   0:	3a434347 	bcc	10d0d24 <_start-0x3ef372dc>
   4:	4e472820 	cdpmi	8, 4, cr2, cr7, cr0, {1}
   8:	34202955 	strtcc	r2, [r0], #-2389	; 0x955
   c:	322e362e 	eorcc	r3, lr, #48234496	; 0x2e00000
	...

Disassembly of section .debug_line:

00000000 <.debug_line>:
   0:	0000006d 	andeq	r0, r0, sp, rrx
   4:	00240002 	eoreq	r0, r4, r2
   8:	01020000 	mrseq	r0, (UNDEF: 2)
   c:	000d0efb 	strdeq	r0, [sp], -fp
  10:	01010101 	tsteq	r1, r1, lsl #2
  14:	01000000 	mrseq	r0, (UNDEF: 0)
  18:	73010000 	movwvc	r0, #4096	; 0x1000
  1c:	74726174 	ldrbtvc	r6, [r2], #-372	; 0x174
  20:	74730000 	ldrbtvc	r0, [r3]
  24:	2e747261 	cdpcs	2, 7, cr7, cr4, cr1, {3}
  28:	00010053 	andeq	r0, r1, r3, asr r0
  2c:	05000000 	streq	r0, [r0]
  30:	00800002 	addeq	r0, r0, r2
  34:	2f2f1540 	svccs	0x002f1540
  38:	2f2f2f2f 	svccs	0x002f2f2f
  3c:	f20d032f 	vcgt.s8	d0, d13, d31
  40:	2f2f302f 	svccs	0x002f302f
  44:	342f302f 	strtcc	r3, [pc], #-47	; 4c <_start-0x40007fb4>
  48:	2f322f2f 	svccs	0x00322f2f
  4c:	2f2f2f33 	svccs	0x002f2f33
  50:	342f2f2f 	strtcc	r2, [pc], #-3887	; 58 <_start-0x40007fa8>
  54:	2f302f31 	svccs	0x00302f31
  58:	2f2f302f 	svccs	0x002f302f
  5c:	302f2f30 	eorcc	r2, pc, r0, lsr pc	; <UNPREDICTABLE>
  60:	2f302f2f 	svccs	0x00302f2f
  64:	0a033030 	beq	cc12c <_start-0x3ff3bed4>
  68:	2f302f66 	svccs	0x00302f66
  6c:	01000602 	tsteq	r0, r2, lsl #12
  70:	00006501 	andeq	r6, r0, r1, lsl #10
  74:	2c000200 	sfmcs	f0, 4, [r0], {0}
  78:	02000000 	andeq	r0, r0, #0
  7c:	0d0efb01 	vstreq	d15, [lr, #-4]
  80:	01010100 	mrseq	r0, (UNDEF: 17)
  84:	00000001 	andeq	r0, r0, r1
  88:	01000001 	tsteq	r0, r1
  8c:	6d6d6f63 	stclvs	15, cr6, [sp, #-396]!	; 0xfffffe74
  90:	732f6e6f 	teqvc	pc, #1776	; 0x6f0
  94:	00006372 	andeq	r6, r0, r2, ror r3
  98:	6964755f 	stmdbvs	r4!, {r0, r1, r2, r3, r4, r6, r8, sl, ip, sp, lr}^
  9c:	33697376 	cmncc	r9, #-671088639	; 0xd8000001
  a0:	0100532e 	tsteq	r0, lr, lsr #6
  a4:	00000000 	andeq	r0, r0, r0
  a8:	81000205 	tsthi	r0, r5, lsl #4
  ac:	11034000 	mrsne	r4, (UNDEF: 3)
  b0:	2f2f2f01 	svccs	0x002f2f01
  b4:	2f342f2f 	svccs	0x00342f2f
  b8:	322f2f2f 	eorcc	r2, pc, #188	; 0xbc
  bc:	2f2f2f2f 	svccs	0x002f2f2f
  c0:	2f2f2f34 	svccs	0x002f2f34
  c4:	2f2f2f2f 	svccs	0x002f2f2f
  c8:	2f2f2f2f 	svccs	0x002f2f2f
  cc:	2f2f2f2f 	svccs	0x002f2f2f
  d0:	30302f30 	eorscc	r2, r0, r0, lsr pc
  d4:	0002022f 	andeq	r0, r2, pc, lsr #4
  d8:	006c0101 	rsbeq	r0, ip, r1, lsl #2
  dc:	00020000 	andeq	r0, r2, r0
  e0:	0000002c 	andeq	r0, r0, ip, lsr #32
  e4:	0efb0102 	cdpeq	1, 15, cr0, cr11, cr2, {0}
  e8:	0101000d 	tsteq	r1, sp
  ec:	00000101 	andeq	r0, r0, r1, lsl #2
  f0:	00000100 	andeq	r0, r0, r0, lsl #2
  f4:	6d6f6301 	stclvs	3, cr6, [pc, #-4]!	; f8 <_start-0x40007f08>
  f8:	2f6e6f6d 	svccs	0x006e6f6d
  fc:	00637273 	rsbeq	r7, r3, r3, ror r2
 100:	6d755f00 	ldclvs	15, cr5, [r5]
 104:	6973646f 	ldmdbvs	r3!, {r0, r1, r2, r3, r5, r6, sl, sp, lr}^
 108:	00532e33 	subseq	r2, r3, r3, lsr lr
 10c:	00000001 	andeq	r0, r0, r1
 110:	94020500 	strls	r0, [r2], #-1280	; 0x500
 114:	03400081 	movteq	r0, #129	; 0x81
 118:	2f2f0112 	svccs	0x002f0112
 11c:	2f342f2f 	svccs	0x00342f2f
 120:	322f2f2f 	eorcc	r2, pc, #188	; 0xbc
 124:	2f2f2f2f 	svccs	0x002f2f2f
 128:	2f2f2f33 	svccs	0x002f2f33
 12c:	2f2f2f2f 	svccs	0x002f2f2f
 130:	2f2f2f2f 	svccs	0x002f2f2f
 134:	2f2f2f2f 	svccs	0x002f2f2f
 138:	2f2f352f 	svccs	0x002f352f
 13c:	2f2f2f2f 	svccs	0x002f2f2f
 140:	30302f2f 	eorscc	r2, r0, pc, lsr #30
 144:	0002022f 	andeq	r0, r2, pc, lsr #4
 148:	02530101 	subseq	r0, r3, #1073741824	; 0x40000000
 14c:	00020000 	andeq	r0, r2, r0
 150:	00000052 	andeq	r0, r0, r2, asr r0
 154:	0efb0102 	cdpeq	1, 15, cr0, cr11, cr2, {0}
 158:	0101000d 	tsteq	r1, sp
 15c:	00000101 	andeq	r0, r0, r1, lsl #2
 160:	00000100 	andeq	r0, r0, r0, lsl #2
 164:	632f2e01 	teqvs	pc, #16
 168:	6f6d6d6f 	svcvs	0x006d6d6f
 16c:	6e692f6e 	cdpvs	15, 6, cr2, cr9, cr14, {3}
 170:	64756c63 	ldrbtvs	r6, [r5], #-3171	; 0xc63
 174:	6f630065 	svcvs	0x00630065
 178:	6e6f6d6d 	cdpvs	13, 6, cr6, cr15, cr13, {3}
 17c:	6372732f 	cmnvs	r2, #-1140850688	; 0xbc000000
 180:	74630000 	strbtvc	r0, [r3]
 184:	2e657079 	mcrcs	0, 3, r7, cr5, cr9, {3}
 188:	00010068 	andeq	r0, r1, r8, rrx
 18c:	69727000 	ldmdbvs	r2!, {ip, sp, lr}^
 190:	2e66746e 	cdpcs	4, 6, cr7, cr6, cr14, {3}
 194:	00020063 	andeq	r0, r2, r3, rrx
 198:	64747300 	ldrbtvs	r7, [r4], #-768	; 0x300
 19c:	2e677261 	cdpcs	2, 6, cr7, cr7, cr1, {3}
 1a0:	00010068 	andeq	r0, r1, r8, rrx
 1a4:	05000000 	streq	r0, [r0]
 1a8:	00824402 	addeq	r4, r2, r2, lsl #8
 1ac:	00c40340 	sbceq	r0, r4, r0, asr #6
 1b0:	67bb9f01 	ldrvs	r9, [fp, r1, lsl #30]!
 1b4:	0302042f 	movweq	r0, #9263	; 0x242f
 1b8:	bb9e7fbf 	bllt	fe7a00bc <key_number+0xbe7952bc>
 1bc:	0067834c 	rsbeq	r8, r7, ip, asr #6
 1c0:	06010402 	streq	r0, [r1], -r2, lsl #8
 1c4:	4bf30682 	blmi	ffcc1bd4 <key_number+0xbfcb6dd4>
 1c8:	674d6768 	strbvs	r6, [sp, -r8, ror #14]
 1cc:	7fbb304c 	svcvc	0x00bb304c
 1d0:	01040200 	mrseq	r0, R12_usr
 1d4:	02002e06 	andeq	r2, r0, #96	; 0x60
 1d8:	00d60204 	sbcseq	r0, r6, r4, lsl #4
 1dc:	d6010402 	strle	r0, [r1], -r2, lsl #8
 1e0:	02040200 	andeq	r0, r4, #0
 1e4:	00d70682 	sbcseq	r0, r7, r2, lsl #13
 1e8:	06030402 	streq	r0, [r3], -r2, lsl #8
 1ec:	040200d6 	streq	r0, [r2], #-214	; 0xd6
 1f0:	a3650605 	cmnge	r5, #5242880	; 0x500000
 1f4:	a12f6767 	teqge	pc, r7, ror #14
 1f8:	210883bb 			; <UNDEFINED> instruction: 0x210883bb
 1fc:	8224039f 	eorhi	r0, r4, #2080374786	; 0x7c000002
 200:	002f4c83 	eoreq	r4, pc, r3, lsl #25
 204:	08010402 	stmdaeq	r1, {r1, sl}
 208:	040200c7 	streq	r0, [r2], #-199	; 0xc7
 20c:	069e0602 	ldreq	r0, [lr], r2, lsl #12
 210:	20032fa0 	andcs	r2, r3, r0, lsr #31
 214:	834dd882 	movthi	sp, #55426	; 0xd882
 218:	0067834b 	rsbeq	r8, r7, fp, asr #6
 21c:	06010402 	streq	r0, [r1], -r2, lsl #8
 220:	4b670666 	blmi	19c1bc0 <_start-0x3e646440>
 224:	01040200 	mrseq	r0, R12_usr
 228:	02009e06 	andeq	r9, r0, #96	; 0x60
 22c:	004a0204 	subeq	r0, sl, r4, lsl #4
 230:	2e030402 	cdpcs	4, 0, cr0, cr3, cr2, {0}
 234:	03040200 	movweq	r0, #16896	; 0x4200
 238:	02002f06 	andeq	r2, r0, #24
 23c:	834b0304 	movthi	r0, #45828	; 0xb304
 240:	83674b67 	cmnhi	r7, #105472	; 0x19c00
 244:	83834b83 	orrhi	r4, r3, #134144	; 0x20c00
 248:	6783694b 	strvs	r6, [r3, fp, asr #18]
 24c:	4b686783 	blmi	1a1a060 <_start-0x3e5edfa0>
 250:	835a0867 	cmphi	sl, #6750208	; 0x670000
 254:	01040200 	mrseq	r0, R12_usr
 258:	69103202 	ldmdbvs	r0, {r1, r9, ip, sp}
 25c:	2f83834b 	svccs	0x0083834b
 260:	01040200 	mrseq	r0, R12_usr
 264:	673e08b9 			; <UNDEFINED> instruction: 0x673e08b9
 268:	d76783bb 			; <UNDEFINED> instruction: 0xd76783bb
 26c:	83d9bb67 	bicshi	fp, r9, #105472	; 0x19c00
 270:	0402002f 	streq	r0, [r2], #-47	; 0x2f
 274:	3e08b901 	cdpcc	9, 0, cr11, cr8, cr1, {0}
 278:	0200d52f 	andeq	sp, r0, #197132288	; 0xbc00000
 27c:	2e060104 	adfcss	f0, f6, f4
 280:	2f5a0806 	svccs	0x005a0806
 284:	01040200 	mrseq	r0, R12_usr
 288:	3e085708 	cdpcc	7, 0, cr5, cr8, cr8, {0}
 28c:	0402002f 	streq	r0, [r2], #-47	; 0x2f
 290:	3e08b901 	cdpcc	9, 0, cr11, cr8, cr1, {0}
 294:	00a1bf2f 	adceq	fp, r1, pc, lsr #30
 298:	06010402 	streq	r0, [r1], -r2, lsl #8
 29c:	04020066 	streq	r0, [r2], #-102	; 0x66
 2a0:	06900802 	ldreq	r0, [r0], r2, lsl #16
 2a4:	03846784 	orreq	r6, r4, #34603008	; 0x2100000
 2a8:	8367ba12 	cmnhi	r7, #73728	; 0x12000
 2ac:	674c32d7 			; <UNDEFINED> instruction: 0x674c32d7
 2b0:	83132e02 	tsthi	r3, #32
 2b4:	86838383 	strhi	r8, [r3], r3, lsl #7
 2b8:	0402004b 	streq	r0, [r2], #-75	; 0x4b
 2bc:	06820601 	streq	r0, [r2], r1, lsl #12
 2c0:	68839f83 	stmvs	r3, {r0, r1, r7, r8, r9, sl, fp, ip, pc}
 2c4:	6b67679f 	blvs	19da148 <_start-0x3e62deb8>
 2c8:	0067834b 	rsbeq	r8, r7, fp, asr #6
 2cc:	06010402 	streq	r0, [r1], -r2, lsl #8
 2d0:	9f830682 	svcls	0x00830682
 2d4:	67a06883 	strvs	r6, [r0, r3, lsl #17]!
 2d8:	02004b4e 	andeq	r4, r0, #79872	; 0x13800
 2dc:	82060104 	andhi	r0, r6, #1
 2e0:	01040200 	mrseq	r0, R12_usr
 2e4:	0200f306 	andeq	pc, r0, #402653184	; 0x18000000
 2e8:	4b490104 	blmi	1240700 <_start-0x3edc7900>
 2ec:	01040200 	mrseq	r0, R12_usr
 2f0:	02008206 	andeq	r8, r0, #1610612736	; 0x60000000
 2f4:	83060104 	movwhi	r0, #24836	; 0x6104
 2f8:	01040200 	mrseq	r0, R12_usr
 2fc:	00674c49 	rsbeq	r4, r7, r9, asr #24
 300:	06010402 	streq	r0, [r1], -r2, lsl #8
 304:	4b9f0666 	blmi	fe7c1ca4 <key_number+0xbe7b6ea4>
 308:	024c6a68 	subeq	r6, ip, #425984	; 0x68000
 30c:	831401b4 	tsthi	r4, #45	; 0x2d
 310:	0402002f 	streq	r0, [r2], #-47	; 0x2f
 314:	08bcb901 	ldmeq	ip!, {r0, r8, fp, ip, sp, pc}
 318:	02002f3d 	andeq	r2, r0, #244	; 0xf4
 31c:	bcb90104 	ldflts	f0, [r9], #16
 320:	4c679f31 	stclmi	15, cr9, [r7], #-196	; 0xffffff3c
 324:	002f83bc 			; <UNDEFINED> instruction: 0x002f83bc
 328:	b9010402 	stmdblt	r1, {r1, sl}
 32c:	02005a08 	andeq	r5, r0, #32768	; 0x8000
 330:	00670204 	rsbeq	r0, r7, r4, lsl #4
 334:	08020402 	stmdaeq	r2, {r1, sl}
 338:	0402003b 	streq	r0, [r2], #-59	; 0x3b
 33c:	06660601 	strbteq	r0, [r6], -r1, lsl #12
 340:	02002f84 	andeq	r2, r0, #528	; 0x210
 344:	08b90104 	ldmeq	r9!, {r2, r8}
 348:	4b67315a 	blmi	19cc8b8 <_start-0x3e63b748>
 34c:	3f088169 	svccc	0x00088169
 350:	a39f6732 	orrsge	r6, pc, #13107200	; 0xc80000
 354:	31a09f2b 	lsrcc	r9, fp, #30
 358:	314b32bb 	strhcc	r3, [fp, #-43]	; 0xffffffd5
 35c:	68324b68 	ldmdavs	r2!, {r3, r5, r6, r8, r9, fp, lr}
 360:	d983bb31 	stmible	r3, {r0, r4, r5, r8, r9, fp, ip, sp, pc}
 364:	7803672d 	stmdavc	r3, {r0, r2, r3, r5, r8, r9, sl, sp, lr}
 368:	2e0f032e 	cdpcs	3, 0, cr0, cr15, cr14, {1}
 36c:	0200bb67 	andeq	fp, r0, #105472	; 0x19c00
 370:	66060104 	strvs	r0, [r6], -r4, lsl #2
 374:	67bb6706 	ldrvs	r6, [fp, r6, lsl #14]!
 378:	83d767bb 	bicshi	r6, r7, #49020928	; 0x2ec0000
 37c:	9fbc83d7 	svcls	0x00bc83d7
 380:	087ee203 	ldmdaeq	lr!, {r0, r1, r9, sp, lr, pc}^
 384:	04020074 	streq	r0, [r2], #-116	; 0x74
 388:	06660601 	strbteq	r0, [r6], -r1, lsl #12
 38c:	8201a003 	andhi	sl, r1, #3
 390:	a2a16767 	adcge	r6, r1, #27000832	; 0x19c0000
 394:	a12fbc67 	teqge	pc, r7, ror #24
 398:	67f46b86 	ldrbvs	r6, [r4, r6, lsl #23]!
 39c:	01000802 	tsteq	r0, r2, lsl #16
 3a0:	00007901 	andeq	r7, r0, r1, lsl #18
 3a4:	4a000200 	bmi	bac <_start-0x40007454>
 3a8:	02000000 	andeq	r0, r0, #0
 3ac:	0d0efb01 	vstreq	d15, [lr, #-4]
 3b0:	01010100 	mrseq	r0, (UNDEF: 17)
 3b4:	00000001 	andeq	r0, r0, r1
 3b8:	01000001 	tsteq	r0, r1
 3bc:	6d6d6f63 	stclvs	15, cr6, [sp, #-396]!	; 0xfffffe74
 3c0:	732f6e6f 	teqvc	pc, #1776	; 0x6f0
 3c4:	2e006372 	mcrcs	3, 0, r6, cr0, cr2, {3}
 3c8:	6d6f632f 	stclvs	3, cr6, [pc, #-188]!	; 314 <_start-0x40007cec>
 3cc:	2f6e6f6d 	svccs	0x006e6f6d
 3d0:	6c636e69 	stclvs	14, cr6, [r3], #-420	; 0xfffffe5c
 3d4:	00656475 	rsbeq	r6, r5, r5, ror r4
 3d8:	72617500 	rsbvc	r7, r1, #0
 3dc:	00632e74 	rsbeq	r2, r3, r4, ror lr
 3e0:	65000001 	strvs	r0, [r0, #-1]
 3e4:	6f6e7978 	svcvs	0x006e7978
 3e8:	34345f73 	ldrtcc	r5, [r4], #-3955	; 0xf73
 3ec:	682e3231 	stmdavs	lr!, {r0, r4, r5, r9, ip, sp}
 3f0:	00000200 	andeq	r0, r0, r0, lsl #4
 3f4:	02050000 	andeq	r0, r5, #0
 3f8:	40009438 	andmi	r9, r0, r8, lsr r4
 3fc:	67bc4d15 			; <UNDEFINED> instruction: 0x67bc4d15
 400:	a1676768 	cmnge	r7, r8, ror #14
 404:	0402009f 	streq	r0, [r2], #-159	; 0x9f
 408:	062e0601 	strteq	r0, [lr], -r1, lsl #12
 40c:	4b67679f 	blmi	19da290 <_start-0x3e62dd70>
 410:	002f8384 	eoreq	r8, pc, r4, lsl #7
 414:	d5010402 	strle	r0, [r1, #-1026]	; 0x402
 418:	00060284 	andeq	r0, r6, r4, lsl #5
 41c:	00640101 	rsbeq	r0, r4, r1, lsl #2
 420:	00020000 	andeq	r0, r2, r0
 424:	0000003f 	andeq	r0, r0, pc, lsr r0
 428:	0efb0102 	cdpeq	1, 15, cr0, cr11, cr2, {0}
 42c:	0101000d 	tsteq	r1, sp
 430:	00000101 	andeq	r0, r0, r1, lsl #2
 434:	00000100 	andeq	r0, r0, r0, lsl #2
 438:	632f2e01 	teqvs	pc, #16
 43c:	6f6d6d6f 	svcvs	0x006d6d6f
 440:	6e692f6e 	cdpvs	15, 6, cr2, cr9, cr14, {3}
 444:	64756c63 	ldrbtvs	r6, [r5], #-3171	; 0xc63
 448:	62000065 	andvs	r0, r0, #101	; 0x65
 44c:	2e706565 	cdpcs	5, 7, cr6, cr0, cr5, {3}
 450:	00000063 	andeq	r0, r0, r3, rrx
 454:	79786500 	ldmdbvc	r8!, {r8, sl, sp, lr}^
 458:	5f736f6e 	svcpl	0x00736f6e
 45c:	32313434 	eorscc	r3, r1, #872415232	; 0x34000000
 460:	0100682e 	tsteq	r0, lr, lsr #16
 464:	00000000 	andeq	r0, r0, r0
 468:	95440205 	strbls	r0, [r4, #-517]	; 0x205
 46c:	4b194000 	blmi	650474 <_start-0x3f9b7b8c>
 470:	8686a0bb 			; <UNDEFINED> instruction: 0x8686a0bb
 474:	bcbbbc9f 	ldclt	12, cr11, [fp], #636	; 0x27c
 478:	4ca0bcbc 	stcmi	12, cr11, [r0], #752	; 0x2f0
 47c:	9f4c6769 	svcls	0x004c6769
 480:	000a029f 	muleq	sl, pc, r2	; <UNPREDICTABLE>
 484:	008b0101 	addeq	r0, fp, r1, lsl #2
 488:	00020000 	andeq	r0, r2, r0
 48c:	0000003e 	andeq	r0, r0, lr, lsr r0
 490:	0efb0102 	cdpeq	1, 15, cr0, cr11, cr2, {0}
 494:	0101000d 	tsteq	r1, sp
 498:	00000101 	andeq	r0, r0, r1, lsl #2
 49c:	00000100 	andeq	r0, r0, r0, lsl #2
 4a0:	632f2e01 	teqvs	pc, #16
 4a4:	6f6d6d6f 	svcvs	0x006d6d6f
 4a8:	6e692f6e 	cdpvs	15, 6, cr2, cr9, cr14, {3}
 4ac:	64756c63 	ldrbtvs	r6, [r5], #-3171	; 0xc63
 4b0:	6b000065 	blvs	64c <_start-0x400079b4>
 4b4:	632e7965 	teqvs	lr, #1654784	; 0x194000
 4b8:	00000000 	andeq	r0, r0, r0
 4bc:	6e797865 	cdpvs	8, 7, cr7, cr9, cr5, {3}
 4c0:	345f736f 	ldrbcc	r7, [pc], #-879	; 4c8 <_start-0x40007b38>
 4c4:	2e323134 	mrccs	1, 1, r3, cr2, cr4, {1}
 4c8:	00010068 	andeq	r0, r1, r8, rrx
 4cc:	05000000 	streq	r0, [r0]
 4d0:	00969c02 	addseq	r9, r6, r2, lsl #24
 4d4:	01090340 	tsteq	r9, r0, asr #6
 4d8:	6767694c 	strbvs	r6, [r7, -ip, asr #18]!
 4dc:	67684b9f 			; <UNDEFINED> instruction: 0x67684b9f
 4e0:	304b9f67 	subcc	r9, fp, r7, ror #30
 4e4:	a09fbc9f 	umullsge	fp, pc, pc, ip	; <UNPREDICTABLE>
 4e8:	839f68a2 	orrshi	r6, pc, #10616832	; 0xa20000
 4ec:	6b68312d 	blvs	1a0c9a8 <_start-0x3e5fb658>
 4f0:	a09fbc9f 	umullsge	fp, pc, pc, ip	; <UNPREDICTABLE>
 4f4:	bd9f68a1 	ldclt	8, cr6, [pc, #644]	; 780 <_start-0x40007880>
 4f8:	ae086968 	cdpge	9, 0, cr6, cr8, cr8, {3}
 4fc:	6b699f4c 	blvs	1a68234 <_start-0x3e59fdcc>
 500:	304ba068 	subcc	sl, fp, r8, rrx
 504:	a09fbc9f 	umullsge	fp, pc, pc, ip	; <UNPREDICTABLE>
 508:	839f68a1 	orrshi	r6, pc, #10551296	; 0xa10000
 50c:	6868312d 	stmdavs	r8!, {r0, r2, r3, r5, r8, ip, sp}^
 510:	01001a02 	tsteq	r0, r2, lsl #20
 514:	0000d001 	andeq	sp, r0, r1
 518:	3f000200 	svccc	0x00000200
 51c:	02000000 	andeq	r0, r0, #0
 520:	0d0efb01 	vstreq	d15, [lr, #-4]
 524:	01010100 	mrseq	r0, (UNDEF: 17)
 528:	00000001 	andeq	r0, r0, r1
 52c:	01000001 	tsteq	r0, r1
 530:	6f632f2e 	svcvs	0x00632f2e
 534:	6e6f6d6d 	cdpvs	13, 6, cr6, cr15, cr13, {3}
 538:	636e692f 	cmnvs	lr, #770048	; 0xbc000
 53c:	6564756c 	strbvs	r7, [r4, #-1388]!	; 0x56c
 540:	616d0000 	cmnvs	sp, r0
 544:	632e6e69 	teqvs	lr, #1680	; 0x690
 548:	00000000 	andeq	r0, r0, r0
 54c:	6e797865 	cdpvs	8, 7, cr7, cr9, cr5, {3}
 550:	345f736f 	ldrbcc	r7, [pc], #-879	; 558 <_start-0x40007aa8>
 554:	2e323134 	mrccs	1, 1, r3, cr2, cr4, {1}
 558:	00010068 	andeq	r0, r1, r8, rrx
 55c:	05000000 	streq	r0, [r0]
 560:	009a1c02 	addseq	r1, sl, r2, lsl #24
 564:	01180340 	tsteq	r8, r0, asr #6
 568:	00672f84 	rsbeq	r2, r7, r4, lsl #31
 56c:	06020402 	streq	r0, [r2], -r2, lsl #8
 570:	04020066 	streq	r0, [r2], #-102	; 0x66
 574:	81066601 	tsthi	r6, r1, lsl #12
 578:	01040200 	mrseq	r0, R12_usr
 57c:	02006606 	andeq	r6, r0, #6291456	; 0x600000
 580:	65060104 	strvs	r0, [r6, #-260]	; 0x104
 584:	84834108 	strhi	r4, [r3], #264	; 0x108
 588:	0200672f 	andeq	r6, r0, #12320768	; 0xbc0000
 58c:	66060204 	strvs	r0, [r6], -r4, lsl #4
 590:	01040200 	mrseq	r0, R12_usr
 594:	00650666 	rsbeq	r0, r5, r6, ror #12
 598:	06010402 	streq	r0, [r1], -r2, lsl #8
 59c:	04020066 	streq	r0, [r2], #-102	; 0x66
 5a0:	08650601 	stmdaeq	r5!, {r0, r9, sl}^
 5a4:	9f686941 	svcls	0x00686941
 5a8:	f3a06768 			; <UNDEFINED> instruction: 0xf3a06768
 5ac:	302f69bd 			; <UNDEFINED> instruction: 0x302f69bd
 5b0:	4a0b032f 	bmi	2c1274 <_start-0x3fd46d8c>
 5b4:	67689f29 	strbvs	r9, [r8, -r9, lsr #30]!
 5b8:	01040200 	mrseq	r0, R12_usr
 5bc:	02006606 	andeq	r6, r0, #6291456	; 0x600000
 5c0:	4b060104 	blmi	1809d8 <_start-0x3fe87628>
 5c4:	6a4a0903 	bvs	12829d8 <_start-0x3ed85628>
 5c8:	a0bba0bb 	ldrhtge	sl, [fp], fp
 5cc:	a0bba0bb 	ldrhtge	sl, [fp], fp
 5d0:	9f9f9f4c 	svcls	0x009f9f4c
 5d4:	9f2208a0 	svcls	0x002208a0
 5d8:	9f309f30 	svcls	0x00309f30
 5dc:	30309f30 	eorscc	r9, r0, r0, lsr pc
 5e0:	4b4b6767 	blmi	12da384 <_start-0x3ed2dc7c>
 5e4:	01000802 	tsteq	r0, r2, lsl #16
 5e8:	00008301 	andeq	r8, r0, r1, lsl #6
 5ec:	40000200 	andmi	r0, r0, r0, lsl #4
 5f0:	02000000 	andeq	r0, r0, #0
 5f4:	0d0efb01 	vstreq	d15, [lr, #-4]
 5f8:	01010100 	mrseq	r0, (UNDEF: 17)
 5fc:	00000001 	andeq	r0, r0, r1
 600:	01000001 	tsteq	r0, r1
 604:	6f632f2e 	svcvs	0x00632f2e
 608:	6e6f6d6d 	cdpvs	13, 6, cr6, cr15, cr13, {3}
 60c:	636e692f 	cmnvs	lr, #770048	; 0xbc000
 610:	6564756c 	strbvs	r7, [r4, #-1388]!	; 0x56c
 614:	69740000 	ldmdbvs	r4!, {}^	; <UNPREDICTABLE>
 618:	2e72656d 	cdpcs	5, 7, cr6, cr2, cr13, {3}
 61c:	00000063 	andeq	r0, r0, r3, rrx
 620:	79786500 	ldmdbvc	r8!, {r8, sl, sp, lr}^
 624:	5f736f6e 	svcpl	0x00736f6e
 628:	32313434 	eorscc	r3, r1, #872415232	; 0x34000000
 62c:	0100682e 	tsteq	r0, lr, lsr #16
 630:	00000000 	andeq	r0, r0, r0
 634:	9e080205 	cdpls	2, 0, cr0, cr8, cr5, {0}
 638:	0b034000 	bleq	d0640 <_start-0x3ff379c0>
 63c:	32024c01 	andcc	r4, r2, #256	; 0x100
 640:	684b9f14 	stmdavs	fp, {r2, r4, r8, r9, sl, fp, ip, pc}^
 644:	684b9f30 	stmdavs	fp, {r4, r5, r8, r9, sl, fp, ip, pc}^
 648:	684b9f30 	stmdavs	fp, {r4, r5, r8, r9, sl, fp, ip, pc}^
 64c:	70032f31 	andvc	r2, r3, r1, lsr pc
 650:	3650502e 	ldrbcc	r5, [r0], -lr, lsr #32
 654:	5b0867bb 	blpl	21a548 <_start-0x3fdedab8>
 658:	bb2108a0 	bllt	8428e0 <_start-0x3f7c5720>
 65c:	4b9f68bc 	blmi	fe7da954 <key_number+0xbe7cfb54>
 660:	bc9fa0bb 	ldclt	0, cr10, [pc], {187}	; 0xbb
 664:	2d839f68 	stccs	15, cr9, [r3, #416]	; 0x1a0
 668:	02686831 	rsbeq	r6, r8, #3211264	; 0x310000
 66c:	01010014 	tsteq	r1, r4, lsl r0

Disassembly of section .debug_info:

00000000 <.debug_info>:
       0:	0000004f 	andeq	r0, r0, pc, asr #32
       4:	00000002 	andeq	r0, r0, r2
       8:	01040000 	mrseq	r0, (UNDEF: 4)
       c:	00000000 	andeq	r0, r0, r0
      10:	40008000 	andmi	r8, r0, r0
      14:	400080f8 	strdmi	r8, [r0], -r8	; <UNPREDICTABLE>
      18:	72617473 	rsbvc	r7, r1, #1929379840	; 0x73000000
      1c:	74732f74 	ldrbtvc	r2, [r3], #-3956	; 0xf74
      20:	2e747261 	cdpcs	2, 7, cr7, cr4, cr1, {3}
      24:	3a460053 	bcc	1180178 <_start-0x3ee87e88>
      28:	5f796d5c 	svcpl	0x00796d5c
      2c:	696c6365 	stmdbvs	ip!, {r0, r2, r5, r6, r8, r9, sp, lr}^
      30:	5f657370 	svcpl	0x00657370
      34:	6a6f7270 	bvs	1bdc9fc <_start-0x3e42b604>
      38:	5c746365 	ldclpl	3, cr6, [r4], #-404	; 0xfffffe6c
      3c:	74736574 	ldrbtvc	r6, [r3], #-1396	; 0x574
      40:	746e695f 	strbtvc	r6, [lr], #-2399	; 0x95f
      44:	554e4700 	strbpl	r4, [lr, #-1792]	; 0x700
      48:	20534120 	subscs	r4, r3, r0, lsr #2
      4c:	31322e32 	teqcc	r2, r2, lsr lr
      50:	57800100 	strpl	r0, [r0, r0, lsl #2]
      54:	02000000 	andeq	r0, r0, #0
      58:	00001400 	andeq	r1, r0, r0, lsl #8
      5c:	71010400 	tstvc	r1, r0, lsl #8
      60:	00000000 	andeq	r0, r0, r0
      64:	94400081 	strbls	r0, [r0], #-129	; 0x81
      68:	63400081 	movtvs	r0, #129	; 0x81
      6c:	6f6d6d6f 	svcvs	0x006d6d6f
      70:	72732f6e 	rsbsvc	r2, r3, #440	; 0x1b8
      74:	755f2f63 	ldrbvc	r2, [pc, #-3939]	; fffff119 <key_number+0xbfff4319>
      78:	73766964 	cmnvc	r6, #1638400	; 0x190000
      7c:	532e3369 	teqpl	lr, #-1543503871	; 0xa4000001
      80:	5c3a4600 	ldcpl	6, cr4, [sl]
      84:	655f796d 	ldrbvs	r7, [pc, #-2413]	; fffff71f <key_number+0xbfff491f>
      88:	70696c63 	rsbvc	r6, r9, r3, ror #24
      8c:	705f6573 	subsvc	r6, pc, r3, ror r5	; <UNPREDICTABLE>
      90:	656a6f72 	strbvs	r6, [sl, #-3954]!	; 0xf72
      94:	745c7463 	ldrbvc	r7, [ip], #-1123	; 0x463
      98:	5f747365 	svcpl	0x00747365
      9c:	00746e69 	rsbseq	r6, r4, r9, ror #28
      a0:	20554e47 	subscs	r4, r5, r7, asr #28
      a4:	32205341 	eorcc	r5, r0, #67108865	; 0x4000001
      a8:	0031322e 	eorseq	r3, r1, lr, lsr #4
      ac:	00578001 	subseq	r8, r7, r1
      b0:	00020000 	andeq	r0, r2, r0
      b4:	00000028 	andeq	r0, r0, r8, lsr #32
      b8:	00da0104 	sbcseq	r0, sl, r4, lsl #2
      bc:	81940000 	orrshi	r0, r4, r0
      c0:	82444000 	subhi	r4, r4, #0
      c4:	6f634000 	svcvs	0x00634000
      c8:	6e6f6d6d 	cdpvs	13, 6, cr6, cr15, cr13, {3}
      cc:	6372732f 	cmnvs	r2, #-1140850688	; 0xbc000000
      d0:	6d755f2f 	ldclvs	15, cr5, [r5, #-188]!	; 0xffffff44
      d4:	6973646f 	ldmdbvs	r3!, {r0, r1, r2, r3, r5, r6, sl, sp, lr}^
      d8:	00532e33 	subseq	r2, r3, r3, lsr lr
      dc:	6d5c3a46 	vldrvs	s7, [ip, #-280]	; 0xfffffee8
      e0:	63655f79 	cmnvs	r5, #484	; 0x1e4
      e4:	7370696c 	cmnvc	r0, #1769472	; 0x1b0000
      e8:	72705f65 	rsbsvc	r5, r0, #404	; 0x194
      ec:	63656a6f 	cmnvs	r5, #454656	; 0x6f000
      f0:	65745c74 	ldrbvs	r5, [r4, #-3188]!	; 0xc74
      f4:	695f7473 	ldmdbvs	pc, {r0, r1, r4, r5, r6, sl, ip, sp, lr}^	; <UNPREDICTABLE>
      f8:	4700746e 	strmi	r7, [r0, -lr, ror #8]
      fc:	4120554e 	teqmi	r0, lr, asr #10
     100:	2e322053 	mrccs	0, 1, r2, cr2, cr3, {2}
     104:	01003132 	tsteq	r0, r2, lsr r1
     108:	0004be80 	andeq	fp, r4, r0, lsl #29
     10c:	3c000200 	sfmcc	f0, 4, [r0], {0}
     110:	04000000 	streq	r0, [r0]
     114:	00006d01 	andeq	r6, r0, r1, lsl #26
     118:	00990100 	addseq	r0, r9, r0, lsl #2
     11c:	00d80000 	sbcseq	r0, r8, r0
     120:	82440000 	subhi	r0, r4, #0
     124:	94384000 	ldrtls	r4, [r8]
     128:	014a4000 	mrseq	r4, (UNDEF: 74)
     12c:	41020000 	mrsmi	r0, (UNDEF: 2)
     130:	03000000 	movweq	r0, #0
     134:	00003028 	andeq	r3, r0, r8, lsr #32
     138:	00040300 	andeq	r0, r4, r0, lsl #6
     13c:	02000000 	andeq	r0, r0, #0
     140:	00000048 	andeq	r0, r0, r8, asr #32
     144:	00256603 	eoreq	r6, r5, r3, lsl #12
     148:	37040000 	strcc	r0, [r4, -r0]
     14c:	01000000 	mrseq	r0, (UNDEF: 0)
     150:	006a0144 	rsbeq	r0, sl, r4, asr #2
     154:	82440000 	subhi	r0, r4, #0
     158:	82944000 	addshi	r4, r4, #0
     15c:	00004000 	andeq	r4, r0, r0
     160:	006a0000 	rsbeq	r0, sl, r0
     164:	63050000 	movwvs	r0, #20480	; 0x5000
     168:	6a440100 	bvs	1100570 <_start-0x3ef07a90>
     16c:	02000000 	andeq	r0, r0, #0
     170:	06007891 			; <UNDEFINED> instruction: 0x06007891
     174:	005a0801 	subseq	r0, sl, r1, lsl #16
     178:	01070000 	mrseq	r0, (UNDEF: 7)
     17c:	00000012 	andeq	r0, r0, r2, lsl r0
     180:	d4010702 	strle	r0, [r1], #-1794	; 0x702
     184:	94000000 	strls	r0, [r0]
     188:	3c400082 	mcrrcc	0, 8, r0, r0, cr2
     18c:	2c400084 	mcrrcs	0, 8, r0, r0, cr4
     190:	d4000000 	strle	r0, [r0]
     194:	05000000 	streq	r0, [r0]
     198:	02007063 	andeq	r7, r0, #99	; 0x63
     19c:	0000db07 	andeq	sp, r0, r7, lsl #22
     1a0:	6c910200 	lfmvs	f0, 4, [r1], {0}
     1a4:	0000d308 	andeq	sp, r0, r8, lsl #6
     1a8:	ed070200 	sfm	f0, 4, [r7]
     1ac:	02000000 	andeq	r0, r0, #0
     1b0:	68086891 	stmdavs	r8, {r0, r4, r7, fp, sp, lr}
     1b4:	02000000 	andeq	r0, r0, #0
     1b8:	0000f907 	andeq	pc, r0, r7, lsl #18
     1bc:	64910200 	ldrvs	r0, [r1], #512	; 0x200
     1c0:	0000bd09 	andeq	fp, r0, r9, lsl #26
     1c4:	d4090200 	strle	r0, [r9], #-512	; 0x200
     1c8:	02000000 	andeq	r0, r0, #0
     1cc:	21097491 			; <UNDEFINED> instruction: 0x21097491
     1d0:	02000000 	andeq	r0, r0, #0
     1d4:	0000d409 	andeq	sp, r0, r9, lsl #8
     1d8:	70910200 	addsvc	r0, r1, r0, lsl #4
     1dc:	07040600 	streq	r0, [r4, -r0, lsl #12]
     1e0:	00000079 	andeq	r0, r0, r9, ror r0
     1e4:	00e1040a 	rsceq	r0, r1, sl, lsl #8
     1e8:	e60b0000 	str	r0, [fp], -r0
     1ec:	06000000 	streq	r0, [r0], -r0
     1f0:	00630801 	rsbeq	r0, r3, r1, lsl #16
     1f4:	040a0000 	streq	r0, [sl]
     1f8:	000000f3 	strdeq	r0, [r0], -r3
     1fc:	00e6040a 	rsceq	r0, r6, sl, lsl #8
     200:	04060000 	streq	r0, [r6]
     204:	00007e07 	andeq	r7, r0, r7, lsl #28
     208:	8b010700 	blhi	41e10 <_start-0x3ffc61f0>
     20c:	02000000 	andeq	r0, r0, #0
     210:	01470122 	cmpeq	r7, r2, lsr #2
     214:	843c0000 	ldrthi	r0, [ip]
     218:	84ac4000 	strthi	r4, [ip]
     21c:	00584000 	subseq	r4, r8, r0
     220:	01470000 	mrseq	r0, (UNDEF: 71)
     224:	63050000 	movwvs	r0, #20480	; 0x5000
     228:	22020070 	andcs	r0, r2, #112	; 0x70
     22c:	000000db 	ldrdeq	r0, [r0], -fp
     230:	08749102 	ldmdaeq	r4!, {r1, r8, ip, pc}^
     234:	000000d3 	ldrdeq	r0, [r0], -r3
     238:	00ed2202 	rsceq	r2, sp, r2, lsl #4
     23c:	91020000 	mrsls	r0, (UNDEF: 2)
     240:	00680870 	rsbeq	r0, r8, r0, ror r8
     244:	22020000 	andcs	r0, r2, #0
     248:	000000f9 	strdeq	r0, [r0], -r9
     24c:	006c9102 	rsbeq	r9, ip, r2, lsl #2
     250:	22050406 	andcs	r0, r5, #100663296	; 0x6000000
     254:	04000001 	streq	r0, [r0], #-1
     258:	0000002d 	andeq	r0, r0, sp, lsr #32
     25c:	83014a02 	movwhi	r4, #6658	; 0x1a02
     260:	ac000001 	stcge	0, cr0, [r0], {1}
     264:	40400084 	submi	r0, r0, r4, lsl #1
     268:	84400085 	strbhi	r0, [r0], #-133	; 0x85
     26c:	83000000 	movwhi	r0, #0
     270:	05000001 	streq	r0, [r0, #-1]
     274:	4a020073 	bmi	80448 <_start-0x3ff87bb8>
     278:	0000018a 	andeq	r0, r0, sl, lsl #3
     27c:	0c749102 	ldfeqp	f1, [r4], #-8
     280:	4c020069 	stcmi	0, cr0, [r2], {105}	; 0x69
     284:	00000183 	andeq	r0, r0, r3, lsl #3
     288:	00789102 	rsbseq	r9, r8, r2, lsl #2
     28c:	6905040d 	stmdbvs	r5, {r0, r2, r3, sl}
     290:	0a00746e 	beq	1d450 <_start-0x3ffeabb0>
     294:	0000db04 	andeq	sp, r0, r4, lsl #22
     298:	05a30400 	streq	r0, [r3, #1024]!	; 0x400
     29c:	6f020000 	svcvs	0x00020000
     2a0:	0000f301 	andeq	pc, r0, r1, lsl #6
     2a4:	00854000 	addeq	r4, r5, r0
     2a8:	0089d840 	addeq	sp, r9, r0, asr #16
     2ac:	0000b040 	andeq	fp, r0, r0, asr #32
     2b0:	00026000 	andeq	r6, r2, r0
     2b4:	74730500 	ldrbtvc	r0, [r3], #-1280	; 0x500
     2b8:	6f020072 	svcvs	0x00020072
     2bc:	000000f3 	strdeq	r0, [r0], -r3
     2c0:	7f9c9103 	svcvc	0x009c9103
     2c4:	6d756e05 	ldclvs	14, cr6, [r5, #-20]!	; 0xffffffec
     2c8:	476f0200 	strbmi	r0, [pc, -r0, lsl #4]!
     2cc:	03000001 	movweq	r0, #1
     2d0:	087f9891 	ldmdaeq	pc!, {r0, r4, r7, fp, ip, pc}^	; <UNPREDICTABLE>
     2d4:	00000068 	andeq	r0, r0, r8, rrx
     2d8:	00f96f02 	rscseq	r6, r9, r2, lsl #30
     2dc:	91030000 	mrsls	r0, (UNDEF: 3)
     2e0:	36087f94 			; <UNDEFINED> instruction: 0x36087f94
     2e4:	02000001 	andeq	r0, r0, #1
     2e8:	0001836f 	andeq	r8, r1, pc, ror #6
     2ec:	90910300 	addsls	r0, r1, r0, lsl #6
     2f0:	0050087f 	subseq	r0, r0, pc, ror r8
     2f4:	6f020000 	svcvs	0x00020000
     2f8:	00000183 	andeq	r0, r0, r3, lsl #3
     2fc:	08009102 	stmdaeq	r0, {r1, r8, ip, pc}
     300:	000000f9 	strdeq	r0, [r0], -r9
     304:	01836f02 	orreq	r6, r3, r2, lsl #30
     308:	91020000 	mrsls	r0, (UNDEF: 2)
     30c:	00630c04 	rsbeq	r0, r3, r4, lsl #24
     310:	00e67202 	rsceq	r7, r6, r2, lsl #4
     314:	91020000 	mrsls	r0, (UNDEF: 2)
     318:	012b096b 	teqeq	fp, fp, ror #18
     31c:	72020000 	andvc	r0, r2, #0
     320:	000000e6 	andeq	r0, r0, r6, ror #1
     324:	0c779102 	ldfeqp	f1, [r7], #-8
     328:	00706d74 	rsbseq	r6, r0, r4, ror sp
     32c:	02607202 	rsbeq	r7, r0, #536870912	; 0x20000000
     330:	91030000 	mrsls	r0, (UNDEF: 3)
     334:	fe097fa0 	cdp2	15, 0, cr7, cr9, cr0, {5}
     338:	02000000 	andeq	r0, r0, #0
     33c:	0000db73 	andeq	sp, r0, r3, ror fp
     340:	70910200 	addsvc	r0, r1, r0, lsl #4
     344:	0200690c 	andeq	r6, r0, #196608	; 0x30000
     348:	00018374 	andeq	r8, r1, r4, ror r3
     34c:	6c910200 	lfmvs	f0, 4, [r1], {0}
     350:	0087040e 	addeq	r0, r7, lr, lsl #8
     354:	00873840 	addeq	r3, r7, r0, asr #16
     358:	01300940 	teqeq	r0, r0, asr #18
     35c:	96020000 	strls	r0, [r2], -r0
     360:	00000183 	andeq	r0, r0, r3, lsl #3
     364:	00649102 	rsbeq	r9, r4, r2, lsl #2
     368:	00e60f00 	rsceq	r0, r6, r0, lsl #30
     36c:	02700000 	rsbseq	r0, r0, #0
     370:	d4100000 	ldrle	r0, [r0]
     374:	41000000 	mrsmi	r0, (UNDEF: 0)
     378:	cb010700 	blgt	41f80 <_start-0x3ffc6080>
     37c:	02000000 	andeq	r0, r0, #0
     380:	00f901b4 	ldrhteq	r0, [r9], #20
     384:	89d80000 	ldmibhi	r8, {}^	; <UNPREDICTABLE>
     388:	8a584000 	bhi	1610390 <_start-0x3e9f7c70>
     38c:	00dc4000 	sbcseq	r4, ip, r0
     390:	02b50000 	adcseq	r0, r5, #0
     394:	73050000 	movwvc	r0, #20480	; 0x5000
     398:	dbb40200 	blle	fed00ba0 <key_number+0xbecf5da0>
     39c:	02000000 	andeq	r0, r0, #0
     3a0:	27087491 			; <UNDEFINED> instruction: 0x27087491
     3a4:	02000000 	andeq	r0, r0, #0
     3a8:	0000f9b4 			; <UNDEFINED> instruction: 0x0000f9b4
     3ac:	70910200 	addsvc	r0, r1, r0, lsl #4
     3b0:	0063730c 	rsbeq	r7, r3, ip, lsl #6
     3b4:	00dbb602 	sbcseq	fp, fp, r2, lsl #12
     3b8:	91020000 	mrsls	r0, (UNDEF: 2)
     3bc:	01070078 	tsteq	r7, r8, ror r0
     3c0:	0000013b 	andeq	r0, r0, fp, lsr r1
     3c4:	8301bc02 	movwhi	fp, #7170	; 0x1c02
     3c8:	58000001 	stmdapl	r0, {r0}
     3cc:	9040008a 	subls	r0, r0, sl, lsl #1
     3d0:	08400093 	stmdaeq	r0, {r0, r1, r4, r7}^
     3d4:	c5000001 	strgt	r0, [r0, #-1]
     3d8:	05000003 	streq	r0, [r0, #-3]
     3dc:	00667562 	rsbeq	r7, r6, r2, ror #10
     3e0:	00f3bc02 	rscseq	fp, r3, r2, lsl #24
     3e4:	91020000 	mrsls	r0, (UNDEF: 2)
     3e8:	6d660544 	cfstr64vs	mvdx0, [r6, #-272]!	; 0xfffffef0
     3ec:	bc020074 	stclt	0, cr0, [r2], {116}	; 0x74
     3f0:	000000db 	ldrdeq	r0, [r0], -fp
     3f4:	08409102 	stmdaeq	r0, {r1, r8, ip, pc}^
     3f8:	0000011d 	andeq	r0, r0, sp, lsl r1
     3fc:	0036bc02 	eorseq	fp, r6, r2, lsl #24
     400:	91030000 	mrsls	r0, (UNDEF: 3)
     404:	6c0c7fbc 	stcvs	15, cr7, [ip], {188}	; 0xbc
     408:	02006e65 	andeq	r6, r0, #1616	; 0x650
     40c:	000183be 			; <UNDEFINED> instruction: 0x000183be
     410:	50910200 	addspl	r0, r1, r0, lsl #4
     414:	6d756e0c 	ldclvs	14, cr6, [r5, #-48]!	; 0xffffffd0
     418:	d4c20200 	strble	r0, [r2], #512	; 0x200
     41c:	02000000 	andeq	r0, r0, #0
     420:	690c7491 	stmdbvs	ip, {r0, r4, r7, sl, ip, sp, lr}
     424:	83c40200 	bichi	r0, r4, #0
     428:	02000001 	andeq	r0, r0, #1
     42c:	68097091 	stmdavs	r9, {r0, r4, r7, ip, sp, lr}
     430:	02000000 	andeq	r0, r0, #0
     434:	000183c4 	andeq	r8, r1, r4, asr #7
     438:	6c910200 	lfmvs	f0, 4, [r1], {0}
     43c:	7274730c 	rsbsvc	r7, r4, #805306368	; 0x30000000
     440:	f3c50200 	vsubl.u8	q8, d5, d0
     444:	02000000 	andeq	r0, r0, #0
     448:	730c6891 	movwvc	r6, #51345	; 0xc891
     44c:	dbc60200 	blle	ff180c54 <key_number+0xbf175e54>
     450:	02000000 	andeq	r0, r0, #0
     454:	ad096491 	cfstrsge	mvf6, [r9, #-580]	; 0xfffffdbc
     458:	02000000 	andeq	r0, r0, #0
     45c:	000183c8 	andeq	r8, r1, r8, asr #7
     460:	60910200 	addsvs	r0, r1, r0, lsl #4
     464:	00011109 	andeq	r1, r1, r9, lsl #2
     468:	83ca0200 	bichi	r0, sl, #0
     46c:	02000001 	andeq	r0, r0, #1
     470:	50095c91 	mulpl	r9, r1, ip
     474:	02000000 	andeq	r0, r0, #0
     478:	000183cb 	andeq	r8, r1, fp, asr #7
     47c:	58910200 	ldmpl	r1, {r9}
     480:	0000b309 	andeq	fp, r0, r9, lsl #6
     484:	83cd0200 	bichi	r0, sp, #0
     488:	02000001 	andeq	r0, r0, #1
     48c:	c4115491 	ldrgt	r5, [r1], #-1169	; 0x491
     490:	02000000 	andeq	r0, r0, #0
     494:	008ab4d7 	ldrdeq	fp, [sl], r7
     498:	910c1240 	tstls	ip, r0, asr #4
     49c:	91344000 	teqls	r4, r0
     4a0:	03ac4000 			; <UNDEFINED> instruction: 0x03ac4000
     4a4:	69130000 	ldmdbvs	r3, {}	; <UNPREDICTABLE>
     4a8:	35020070 	strcc	r0, [r2, #-112]	; 0x70
     4ac:	0003c501 	andeq	ip, r3, r1, lsl #10
     4b0:	4c910200 	lfmmi	f0, 4, [r1], {0}
     4b4:	91380e00 	teqls	r8, r0, lsl #28
     4b8:	91604000 	cmnls	r0, r0
     4bc:	69134000 	ldmdbvs	r3, {lr}
     4c0:	38020070 	stmdacc	r2, {r4, r5, r6}
     4c4:	0003cb01 	andeq	ip, r3, r1, lsl #22
     4c8:	48910200 	ldmmi	r1, {r9}
     4cc:	040a0000 	streq	r0, [sl]
     4d0:	00000147 	andeq	r0, r0, r7, asr #2
     4d4:	0183040a 	orreq	r0, r3, sl, lsl #8
     4d8:	01140000 	tsteq	r4, r0
     4dc:	0000013c 	andeq	r0, r0, ip, lsr r1
     4e0:	01017302 	tsteq	r1, r2, lsl #6
     4e4:	00000183 	andeq	r0, r0, r3, lsl #3
     4e8:	40009390 	mulmi	r0, r0, r3
     4ec:	400093e0 	andmi	r9, r0, r0, ror #7
     4f0:	00000134 	andeq	r0, r0, r4, lsr r1
     4f4:	0000042b 	andeq	r0, r0, fp, lsr #8
     4f8:	66756215 			; <UNDEFINED> instruction: 0x66756215
     4fc:	01730200 	cmneq	r3, r0, lsl #4
     500:	000000f3 	strdeq	r0, [r0], -r3
     504:	15609102 	strbne	r9, [r0, #-258]!	; 0x102
     508:	00746d66 	rsbseq	r6, r4, r6, ror #26
     50c:	db017302 	blle	5d11c <_start-0x3ffaaee4>
     510:	02000000 	andeq	r0, r0, #0
     514:	17167491 			; <UNDEFINED> instruction: 0x17167491
     518:	0000011d 	andeq	r0, r0, sp, lsl r1
     51c:	36017502 	strcc	r7, [r1], -r2, lsl #10
     520:	02000000 	andeq	r0, r0, #0
     524:	69136491 	ldmdbvs	r3, {r0, r4, r7, sl, sp, lr}
     528:	01760200 	cmneq	r6, r0, lsl #4
     52c:	00000183 	andeq	r0, r0, r3, lsl #3
     530:	00689102 	rsbeq	r9, r8, r2, lsl #2
     534:	013d0118 	teqeq	sp, r8, lsl r1
     538:	7e020000 	cdpvc	0, 0, cr0, cr2, cr0, {0}
     53c:	93e00101 	mvnls	r0, #1073741824	; 0x40000000
     540:	94384000 	ldrtls	r4, [r8]
     544:	016c4000 	cmneq	ip, r0
     548:	04820000 	streq	r0, [r2]
     54c:	66150000 	ldrvs	r0, [r5], -r0
     550:	0200746d 	andeq	r7, r0, #1828716544	; 0x6d000000
     554:	00db017e 	sbcseq	r0, fp, lr, ror r1
     558:	91020000 	mrsls	r0, (UNDEF: 2)
     55c:	1d171670 	ldcne	6, cr1, [r7, #-448]	; 0xfffffe40
     560:	02000001 	andeq	r0, r0, #1
     564:	00360180 	eorseq	r0, r6, r0, lsl #3
     568:	91020000 	mrsls	r0, (UNDEF: 2)
     56c:	00691360 	rsbeq	r1, r9, r0, ror #6
     570:	f9018102 			; <UNDEFINED> instruction: 0xf9018102
     574:	02000000 	andeq	r0, r0, #0
     578:	05176491 	ldreq	r6, [r7, #-1169]	; 0x491
     57c:	02000001 	andeq	r0, r0, #1
     580:	04820182 	streq	r0, [r2], #386	; 0x182
     584:	91030000 	mrsls	r0, (UNDEF: 3)
     588:	0f007efc 	svceq	0x00007efc
     58c:	000000e6 	andeq	r0, r0, r6, ror #1
     590:	00000492 	muleq	r0, r2, r4
     594:	0000d410 	andeq	sp, r0, r0, lsl r4
     598:	0f006300 	svceq	0x00006300
     59c:	0000006a 	andeq	r0, r0, sl, rrx
     5a0:	000004a2 	andeq	r0, r0, r2, lsr #9
     5a4:	0000d410 	andeq	sp, r0, r0, lsl r4
     5a8:	1900ff00 	stmdbne	r0, {r8, r9, sl, fp, ip, sp, lr, pc}
     5ac:	000000f7 	strdeq	r0, [r0], -r7
     5b0:	04921101 	ldreq	r1, [r2], #257	; 0x101
     5b4:	01010000 	mrseq	r0, (UNDEF: 1)
     5b8:	0000f71a 	andeq	pc, r0, sl, lsl r7	; <UNPREDICTABLE>
     5bc:	92110100 	andsls	r0, r1, #0
     5c0:	01000004 	tsteq	r0, r4
     5c4:	aa640305 	bge	19011e0 <_start-0x3e706e20>
     5c8:	0d004000 	stceq	0, cr4, [r0]
     5cc:	02000002 	andeq	r0, r0, #2
     5d0:	0001af00 	andeq	sl, r1, r0, lsl #30
     5d4:	6d010400 	cfstrsvs	mvf0, [r1]
     5d8:	01000000 	mrseq	r0, (UNDEF: 0)
     5dc:	000001d0 	ldrdeq	r0, [r0], -r0	; <UNPREDICTABLE>
     5e0:	000000d8 	ldrdeq	r0, [r0], -r8
     5e4:	40009438 	andmi	r9, r0, r8, lsr r4
     5e8:	40009544 	andmi	r9, r0, r4, asr #10
     5ec:	000003a1 	andeq	r0, r0, r1, lsr #7
     5f0:	7e070402 	cdpvc	4, 0, cr0, cr7, cr2, {0}
     5f4:	03000000 	movweq	r0, #0
     5f8:	01890218 	orreq	r0, r9, r8, lsl r2
     5fc:	00000090 	muleq	r0, r0, r0
     600:	4e4f4304 	cdpmi	3, 4, cr4, cr15, cr4, {0}
     604:	018a0200 	orreq	r0, sl, r0, lsl #4
     608:	00000025 	andeq	r0, r0, r5, lsr #32
     60c:	04002302 	streq	r2, [r0], #-770	; 0x302
     610:	00544144 	subseq	r4, r4, r4, asr #2
     614:	25018b02 	strcs	r8, [r1, #-2818]	; 0xb02
     618:	02000000 	andeq	r0, r0, #0
     61c:	50040423 	andpl	r0, r4, r3, lsr #8
     620:	02004455 	andeq	r4, r0, #1426063360	; 0x55000000
     624:	0025018c 	eoreq	r0, r5, ip, lsl #3
     628:	23020000 	movwcs	r0, #8192	; 0x2000
     62c:	52440408 	subpl	r0, r4, #134217728	; 0x8000000
     630:	8d020056 	stchi	0, cr0, [r2, #-344]	; 0xfffffea8
     634:	00002501 	andeq	r2, r0, r1, lsl #10
     638:	0c230200 	sfmeq	f0, 4, [r3]
     63c:	00019305 	andeq	r9, r1, r5, lsl #6
     640:	018e0200 	orreq	r0, lr, r0, lsl #4
     644:	00000025 	andeq	r0, r0, r5, lsr #32
     648:	05102302 	ldreq	r2, [r0, #-770]	; 0x302
     64c:	000001c9 	andeq	r0, r0, r9, asr #3
     650:	25018f02 	strcs	r8, [r1, #-3842]	; 0xf02
     654:	02000000 	andeq	r0, r0, #0
     658:	06001423 	streq	r1, [r0], -r3, lsr #8
     65c:	000001b6 			; <UNDEFINED> instruction: 0x000001b6
     660:	2c019002 	stccs	0, cr9, [r1], {2}
     664:	03000000 	movweq	r0, #0
     668:	03c9023c 	biceq	r0, r9, #-1073741821	; 0xc0000003
     66c:	00000187 	andeq	r0, r0, r7, lsl #3
     670:	0001af05 	andeq	sl, r1, r5, lsl #30
     674:	03ca0200 	biceq	r0, sl, #0
     678:	00000025 	andeq	r0, r0, r5, lsr #32
     67c:	05002302 	streq	r2, [r0, #-770]	; 0x302
     680:	0000019a 	muleq	r0, sl, r1
     684:	2503cb02 	strcs	ip, [r3, #-2818]	; 0xb02
     688:	02000000 	andeq	r0, r0, #0
     68c:	86050423 	strhi	r0, [r5], -r3, lsr #8
     690:	02000001 	andeq	r0, r0, #1
     694:	002503cc 	eoreq	r0, r5, ip, asr #7
     698:	23020000 	movwcs	r0, #8192	; 0x2000
     69c:	01e70508 	mvneq	r0, r8, lsl #10
     6a0:	cd020000 	stcgt	0, cr0, [r2]
     6a4:	00002503 	andeq	r2, r0, r3, lsl #10
     6a8:	0c230200 	sfmeq	f0, 4, [r3]
     6ac:	00016e05 	andeq	r6, r1, r5, lsl #28
     6b0:	03ce0200 	biceq	r0, lr, #0
     6b4:	00000025 	andeq	r0, r0, r5, lsr #32
     6b8:	05102302 	ldreq	r2, [r0, #-770]	; 0x302
     6bc:	000001c0 	andeq	r0, r0, r0, asr #3
     6c0:	2503cf02 	strcs	ip, [r3, #-3842]	; 0xf02
     6c4:	02000000 	andeq	r0, r0, #0
     6c8:	66051423 	strvs	r1, [r5], -r3, lsr #8
     6cc:	02000001 	andeq	r0, r0, #1
     6d0:	002503d0 	ldrdeq	r0, [r5], -r0	; <UNPREDICTABLE>
     6d4:	23020000 	movwcs	r0, #8192	; 0x2000
     6d8:	01a00518 	lsleq	r0, r8, r5
     6dc:	d1020000 	mrsle	r0, (UNDEF: 2)
     6e0:	00002503 	andeq	r2, r0, r3, lsl #10
     6e4:	1c230200 	sfmne	f0, 4, [r3]
     6e8:	00018d05 	andeq	r8, r1, r5, lsl #26
     6ec:	03d20200 	bicseq	r0, r2, #0
     6f0:	00000025 	andeq	r0, r0, r5, lsr #32
     6f4:	05202302 	streq	r2, [r0, #-770]!	; 0x302
     6f8:	000001ee 	andeq	r0, r0, lr, ror #3
     6fc:	2503d302 	strcs	sp, [r3, #-770]	; 0x302
     700:	02000000 	andeq	r0, r0, #0
     704:	59052423 	stmdbpl	r5, {r0, r1, r5, sl, sp}
     708:	02000001 	andeq	r0, r0, #1
     70c:	002503d4 	ldrdeq	r0, [r5], -r4	; <UNPREDICTABLE>
     710:	23020000 	movwcs	r0, #8192	; 0x2000
     714:	01f40528 	mvnseq	r0, r8, lsr #10
     718:	d5020000 	strle	r0, [r2]
     71c:	00002503 	andeq	r2, r0, r3, lsl #10
     720:	2c230200 	sfmcs	f0, 4, [r3]
     724:	00014a05 	andeq	r4, r1, r5, lsl #20
     728:	03d60200 	bicseq	r0, r6, #0
     72c:	00000025 	andeq	r0, r0, r5, lsr #32
     730:	05302302 	ldreq	r2, [r0, #-770]!	; 0x302
     734:	00000151 	andeq	r0, r0, r1, asr r1
     738:	2503d702 	strcs	sp, [r3, #-1794]	; 0x702
     73c:	02000000 	andeq	r0, r0, #0
     740:	a8053423 	stmdage	r5, {r0, r1, r5, sl, ip, sp}
     744:	02000001 	andeq	r0, r0, #1
     748:	002503d8 	ldrdeq	r0, [r5], -r8	; <UNPREDICTABLE>
     74c:	23020000 	movwcs	r0, #8192	; 0x2000
     750:	44060038 	strmi	r0, [r6], #-56	; 0x38
     754:	02000001 	andeq	r0, r0, #1
     758:	009c03d9 			; <UNDEFINED> instruction: 0x009c03d9
     75c:	04020000 	streq	r0, [r2]
     760:	00007907 	andeq	r7, r0, r7, lsl #18
     764:	77010700 	strvc	r0, [r1, -r0, lsl #14]
     768:	01000001 	tsteq	r0, r1
     76c:	00943803 	addseq	r3, r4, r3, lsl #16
     770:	00949c40 	addseq	r9, r4, r0, asr #24
     774:	0001a440 	andeq	sl, r1, r0, asr #8
     778:	bb010800 	bllt	42780 <_start-0x3ffc5880>
     77c:	01000001 	tsteq	r0, r1
     780:	949c0110 	ldrls	r0, [ip], #272	; 0x110
     784:	94f84000 	ldrbtls	r4, [r8]
     788:	01d04000 	bicseq	r4, r0, r0
     78c:	01d60000 	bicseq	r0, r6, r0
     790:	81090000 	mrshi	r0, (UNDEF: 9)
     794:	01000001 	tsteq	r0, r1
     798:	0001d610 	andeq	sp, r1, r0, lsl r6
     79c:	74910200 	ldrvc	r0, [r1], #512	; 0x200
     7a0:	01db0a00 	bicseq	r0, fp, r0, lsl #20
     7a4:	01020000 	mrseq	r0, (UNDEF: 2)
     7a8:	00006308 	andeq	r6, r0, r8, lsl #6
     7ac:	e2010800 	and	r0, r1, #0
     7b0:	01000001 	tsteq	r0, r1
     7b4:	94f80117 	ldrbtls	r0, [r8], #279	; 0x117
     7b8:	95444000 	strbls	r4, [r4]
     7bc:	01fc4000 	mvnseq	r4, r0
     7c0:	020a0000 	andeq	r0, sl, #0
     7c4:	61090000 	mrsvs	r0, (UNDEF: 9)
     7c8:	01000001 	tsteq	r0, r1
     7cc:	00020a17 	andeq	r0, r2, r7, lsl sl
     7d0:	74910200 	ldrvc	r0, [r1], #512	; 0x200
     7d4:	d6040b00 	strle	r0, [r4], -r0, lsl #22
     7d8:	00000001 	andeq	r0, r0, r1
     7dc:	0000026d 	andeq	r0, r0, sp, ror #4
     7e0:	024f0002 	subeq	r0, pc, #2
     7e4:	01040000 	mrseq	r0, (UNDEF: 4)
     7e8:	0000006d 	andeq	r0, r0, sp, rrx
     7ec:	0001fe01 	andeq	pc, r1, r1, lsl #28
     7f0:	0000d800 	andeq	sp, r0, r0, lsl #16
     7f4:	00954400 	addseq	r4, r5, r0, lsl #8
     7f8:	00969c40 	addseq	r9, r6, r0, asr #24
     7fc:	00041e40 	andeq	r1, r4, r0, asr #28
     800:	02480200 	subeq	r0, r8, #0
     804:	013d012d 	teqeq	sp, sp, lsr #2
     808:	5e030000 	cdppl	0, 0, cr0, cr3, cr0, {0}
     80c:	02000002 	andeq	r0, r0, #2
     810:	013d012e 	teqeq	sp, lr, lsr #2
     814:	23020000 	movwcs	r0, #8192	; 0x2000
     818:	02640300 	rsbeq	r0, r4, #0
     81c:	2f020000 	svccs	0x00020000
     820:	00013d01 	andeq	r3, r1, r1, lsl #26
     824:	04230200 	strteq	r0, [r3], #-512	; 0x200
     828:	00027403 	andeq	r7, r2, r3, lsl #8
     82c:	01300200 	teqeq	r0, r0, lsl #4
     830:	0000013d 	andeq	r0, r0, sp, lsr r1
     834:	03082302 	movweq	r2, #33538	; 0x8302
     838:	000002a7 	andeq	r0, r0, r7, lsr #5
     83c:	3d013102 	stfccs	f3, [r1, #-8]
     840:	02000001 	andeq	r0, r0, #1
     844:	0c030c23 	stceq	12, cr0, [r3], {35}	; 0x23
     848:	02000002 	andeq	r0, r0, #2
     84c:	013d0132 	teqeq	sp, r2, lsr r1
     850:	23020000 	movwcs	r0, #8192	; 0x2000
     854:	02790310 	rsbseq	r0, r9, #1073741824	; 0x40000000
     858:	33020000 	movwcc	r0, #8192	; 0x2000
     85c:	00013d01 	andeq	r3, r1, r1, lsl #26
     860:	14230200 	strtne	r0, [r3], #-512	; 0x200
     864:	00020503 	andeq	r0, r2, r3, lsl #10
     868:	01340200 	teqeq	r4, r0, lsl #4
     86c:	0000013d 	andeq	r0, r0, sp, lsr r1
     870:	03182302 	tsteq	r8, #134217728	; 0x8000000
     874:	0000021f 	andeq	r0, r0, pc, lsl r2
     878:	3d013502 	cfstr32cc	mvfx3, [r1, #-8]
     87c:	02000001 	andeq	r0, r0, #1
     880:	80031c23 	andhi	r1, r3, r3, lsr #24
     884:	02000002 	andeq	r0, r0, #2
     888:	013d0136 	teqeq	sp, r6, lsr r1
     88c:	23020000 	movwcs	r0, #8192	; 0x2000
     890:	02500320 	subseq	r0, r0, #-2147483648	; 0x80000000
     894:	37020000 	strcc	r0, [r2, -r0]
     898:	00013d01 	andeq	r3, r1, r1, lsl #26
     89c:	24230200 	strtcs	r0, [r3], #-512	; 0x200
     8a0:	00022603 	andeq	r2, r2, r3, lsl #12
     8a4:	01380200 	teqeq	r8, r0, lsl #4
     8a8:	0000013d 	andeq	r0, r0, sp, lsr r1
     8ac:	03282302 	teqeq	r8, #134217728	; 0x8000000
     8b0:	00000287 	andeq	r0, r0, r7, lsl #5
     8b4:	3d013902 	stccc	9, cr3, [r1, #-8]
     8b8:	02000001 	andeq	r0, r0, #1
     8bc:	57032c23 	strpl	r2, [r3, -r3, lsr #24]
     8c0:	02000002 	andeq	r0, r0, #2
     8c4:	013d013a 	teqeq	sp, sl, lsr r1
     8c8:	23020000 	movwcs	r0, #8192	; 0x2000
     8cc:	022d0330 	eoreq	r0, sp, #-1073741824	; 0xc0000000
     8d0:	3b020000 	blcc	808d8 <_start-0x3ff87728>
     8d4:	00013d01 	andeq	r3, r1, r1, lsl #26
     8d8:	34230200 	strtcc	r0, [r3], #-512	; 0x200
     8dc:	00028e03 	andeq	r8, r2, r3, lsl #28
     8e0:	013c0200 	teqeq	ip, r0, lsl #4
     8e4:	0000013d 	andeq	r0, r0, sp, lsr r1
     8e8:	03382302 	teqeq	r8, #134217728	; 0x8000000
     8ec:	000002ae 	andeq	r0, r0, lr, lsr #5
     8f0:	3d013d02 	stccc	13, cr3, [r1, #-8]
     8f4:	02000001 	andeq	r0, r0, #1
     8f8:	95033c23 	strls	r3, [r3, #-3107]	; 0xc23
     8fc:	02000002 	andeq	r0, r0, #2
     900:	013d013e 	teqeq	sp, lr, lsr r1
     904:	23020000 	movwcs	r0, #8192	; 0x2000
     908:	029c0340 	addseq	r0, ip, #1
     90c:	3f020000 	svccc	0x00020000
     910:	00013d01 	andeq	r3, r1, r1, lsl #26
     914:	44230200 	strtmi	r0, [r3], #-512	; 0x200
     918:	07040400 	streq	r0, [r4, -r0, lsl #8]
     91c:	0000007e 	andeq	r0, r0, lr, ror r0
     920:	6d777005 	ldclvs	0, cr7, [r7, #-20]!	; 0xffffffec
     924:	01400200 	mrseq	r0, (UNDEF: 96)
     928:	00000025 	andeq	r0, r0, r5, lsr #32
     92c:	b5021802 	strlt	r1, [r2, #-2050]	; 0x802
     930:	0001b401 	andeq	fp, r1, r1, lsl #8
     934:	4f430600 	svcmi	0x00430600
     938:	b602004e 	strlt	r0, [r2], -lr, asr #32
     93c:	00013d01 	andeq	r3, r1, r1, lsl #26
     940:	00230200 	eoreq	r0, r3, r0, lsl #4
     944:	54414406 	strbpl	r4, [r1], #-1030	; 0x406
     948:	01b70200 			; <UNDEFINED> instruction: 0x01b70200
     94c:	0000013d 	andeq	r0, r0, sp, lsr r1
     950:	06042302 	streq	r2, [r4], -r2, lsl #6
     954:	00445550 	subeq	r5, r4, r0, asr r5
     958:	3d01b802 	stccc	8, cr11, [r1, #-8]
     95c:	02000001 	andeq	r0, r0, #1
     960:	44060823 	strmi	r0, [r6], #-2083	; 0x823
     964:	02005652 	andeq	r5, r0, #85983232	; 0x5200000
     968:	013d01b9 			; <UNDEFINED> instruction: 0x013d01b9
     96c:	23020000 	movwcs	r0, #8192	; 0x2000
     970:	0193030c 	orrseq	r0, r3, ip, lsl #6
     974:	ba020000 	blt	8097c <_start-0x3ff87684>
     978:	00013d01 	andeq	r3, r1, r1, lsl #26
     97c:	10230200 	eorne	r0, r3, r0, lsl #4
     980:	0001c903 	andeq	ip, r1, r3, lsl #18
     984:	01bb0200 			; <UNDEFINED> instruction: 0x01bb0200
     988:	0000013d 	andeq	r0, r0, sp, lsr r1
     98c:	00142302 	andseq	r2, r4, r2, lsl #6
     990:	00021a07 	andeq	r1, r2, r7, lsl #20
     994:	01bc0200 			; <UNDEFINED> instruction: 0x01bc0200
     998:	00000150 	andeq	r0, r0, r0, asr r1
     99c:	79070404 	stmdbvc	r7, {r2, sl}
     9a0:	08000000 	stmdaeq	r0, {}	; <UNPREDICTABLE>
     9a4:	0000013d 	andeq	r0, r0, sp, lsr r1
     9a8:	000001d7 	ldrdeq	r0, [r0], -r7
     9ac:	0001c009 	andeq	ip, r1, r9
     9b0:	0a000600 	beq	21b8 <_start-0x40005e48>
     9b4:	00026a01 	andeq	r6, r2, r1, lsl #20
     9b8:	44080100 	strmi	r0, [r8], #-256	; 0x100
     9bc:	88400095 	stmdahi	r0, {r0, r2, r4, r7}^
     9c0:	28400095 	stmdacs	r0, {r0, r2, r4, r7}^
     9c4:	0b000002 	bleq	9d4 <_start-0x4000762c>
     9c8:	00024801 	andeq	r4, r2, r1, lsl #16
     9cc:	01100100 	tsteq	r0, r0, lsl #2
     9d0:	40009588 	andmi	r9, r0, r8, lsl #11
     9d4:	40009624 	andmi	r9, r0, r4, lsr #12
     9d8:	00000254 	andeq	r0, r0, r4, asr r2
     9dc:	00000222 	andeq	r0, r0, r2, lsr #4
     9e0:	0100790c 	tsteq	r0, ip, lsl #18
     9e4:	00022210 	andeq	r2, r2, r0, lsl r2
     9e8:	78910200 	ldmvc	r1, {r9}
     9ec:	0002130d 	andeq	r1, r2, sp, lsl #6
     9f0:	c7110100 	ldrgt	r0, [r1, -r0, lsl #2]
     9f4:	05000001 	streq	r0, [r0, #-1]
     9f8:	00ab6403 	adceq	r6, fp, r3, lsl #8
     9fc:	040e0040 	streq	r0, [lr], #-64	; 0x40
     a00:	746e6905 	strbtvc	r6, [lr], #-2309	; 0x905
     a04:	34010b00 	strcc	r0, [r1], #-2816	; 0xb00
     a08:	01000002 	tsteq	r0, r2
     a0c:	9624011e 			; <UNDEFINED> instruction: 0x9624011e
     a10:	96584000 	ldrbls	r4, [r8], -r0
     a14:	02804000 	addeq	r4, r0, #0
     a18:	025c0000 	subseq	r0, ip, #0
     a1c:	790c0000 	stmdbvc	ip, {}	; <UNPREDICTABLE>
     a20:	221e0100 	andscs	r0, lr, #0
     a24:	02000002 	andeq	r0, r0, #2
     a28:	6d0c7491 	cfstrsvs	mvf7, [ip, #-580]	; 0xfffffdbc
     a2c:	1e010073 	mcrne	0, 0, r0, cr1, cr3, {3}
     a30:	00000222 	andeq	r0, r0, r2, lsr #4
     a34:	00709102 	rsbseq	r9, r0, r2, lsl #2
     a38:	023f010a 	eorseq	r0, pc, #-2147483646	; 0x80000002
     a3c:	26010000 	strcs	r0, [r1], -r0
     a40:	40009658 	andmi	r9, r0, r8, asr r6
     a44:	4000969c 	mulmi	r0, ip, r6
     a48:	000002ac 	andeq	r0, r0, ip, lsr #5
     a4c:	00055300 	andeq	r5, r5, r0, lsl #6
     a50:	18000200 	stmdane	r0, {r9}
     a54:	04000003 	streq	r0, [r0], #-3
     a58:	00006d01 	andeq	r6, r0, r1, lsl #26
     a5c:	03bc0100 			; <UNDEFINED> instruction: 0x03bc0100
     a60:	00d80000 	sbcseq	r0, r8, r0
     a64:	969c0000 	ldrls	r0, [ip], r0
     a68:	9a1c4000 	bls	710a70 <_start-0x3f8f7590>
     a6c:	04864000 	streq	r4, [r6]
     a70:	04020000 	streq	r0, [r2]
     a74:	00007e07 	andeq	r7, r0, r7, lsl #28
     a78:	02100300 	andseq	r0, r0, #0
     a7c:	00720200 	rsbseq	r0, r2, r0, lsl #4
     a80:	43040000 	movwmi	r0, #16384	; 0x4000
     a84:	02004e4f 	andeq	r4, r0, #1264	; 0x4f0
     a88:	00250201 	eoreq	r0, r5, r1, lsl #4
     a8c:	23020000 	movwcs	r0, #8192	; 0x2000
     a90:	41440400 	cmpmi	r4, r0, lsl #8
     a94:	02020054 	andeq	r0, r2, #84	; 0x54
     a98:	00002502 	andeq	r2, r0, r2, lsl #10
     a9c:	04230200 	strteq	r0, [r3], #-512	; 0x200
     aa0:	44555004 	ldrbmi	r5, [r5], #-4
     aa4:	02030200 	andeq	r0, r3, #0
     aa8:	00000025 	andeq	r0, r0, r5, lsr #32
     aac:	04082302 	streq	r2, [r8], #-770	; 0x302
     ab0:	00565244 	subseq	r5, r6, r4, asr #4
     ab4:	25020402 	strcs	r0, [r2, #-1026]	; 0x402
     ab8:	02000000 	andeq	r0, r0, #0
     abc:	05000c23 	streq	r0, [r0, #-3107]	; 0xc23
     ac0:	00000460 	andeq	r0, r0, r0, ror #8
     ac4:	2c020502 	cfstr32cs	mvfx0, [r2], {2}
     ac8:	03000000 	movweq	r0, #0
     acc:	02120210 	andseq	r0, r2, #1
     ad0:	000000c4 	andeq	r0, r0, r4, asr #1
     ad4:	4e4f4304 	cdpmi	3, 4, cr4, cr15, cr4, {0}
     ad8:	02130200 	andseq	r0, r3, #0
     adc:	00000025 	andeq	r0, r0, r5, lsr #32
     ae0:	04002302 	streq	r2, [r0], #-770	; 0x302
     ae4:	00544144 	subseq	r4, r4, r4, asr #2
     ae8:	25021402 	strcs	r1, [r2, #-1026]	; 0x402
     aec:	02000000 	andeq	r0, r0, #0
     af0:	50040423 	andpl	r0, r4, r3, lsr #8
     af4:	02004455 	andeq	r4, r0, #1426063360	; 0x55000000
     af8:	00250215 	eoreq	r0, r5, r5, lsl r2
     afc:	23020000 	movwcs	r0, #8192	; 0x2000
     b00:	52440408 	subpl	r0, r4, #134217728	; 0x8000000
     b04:	16020056 			; <UNDEFINED> instruction: 0x16020056
     b08:	00002502 	andeq	r2, r0, r2, lsl #10
     b0c:	0c230200 	sfmeq	f0, 4, [r3]
     b10:	04650500 	strbteq	r0, [r5], #-1280	; 0x500
     b14:	17020000 	strne	r0, [r2, -r0]
     b18:	00007e02 	andeq	r7, r0, r2, lsl #28
     b1c:	02280300 	eoreq	r0, r8, #0
     b20:	0170024b 	cmneq	r0, fp, asr #4
     b24:	60060000 	andvs	r0, r6, r0
     b28:	02000005 	andeq	r0, r0, #5
     b2c:	0025024c 	eoreq	r0, r5, ip, asr #4
     b30:	23020000 	movwcs	r0, #8192	; 0x2000
     b34:	04b80600 	ldrteq	r0, [r8], #1536	; 0x600
     b38:	4d020000 	stcmi	0, cr0, [r2]
     b3c:	00002502 	andeq	r2, r0, r2, lsl #10
     b40:	04230200 	strteq	r0, [r3], #-512	; 0x200
     b44:	0002ff06 	andeq	pc, r2, r6, lsl #30
     b48:	024e0200 	subeq	r0, lr, #0
     b4c:	00000025 	andeq	r0, r0, r5, lsr #32
     b50:	06082302 	streq	r2, [r8], -r2, lsl #6
     b54:	000003b5 			; <UNDEFINED> instruction: 0x000003b5
     b58:	25024f02 	strcs	r4, [r2, #-3842]	; 0xf02
     b5c:	02000000 	andeq	r0, r0, #0
     b60:	f7060c23 			; <UNDEFINED> instruction: 0xf7060c23
     b64:	02000002 	andeq	r0, r0, #2
     b68:	00250250 	eoreq	r0, r5, r0, asr r2
     b6c:	23020000 	movwcs	r0, #8192	; 0x2000
     b70:	04a20610 	strteq	r0, [r2], #1552	; 0x610
     b74:	51020000 	mrspl	r0, (UNDEF: 2)
     b78:	00002502 	andeq	r2, r0, r2, lsl #10
     b7c:	14230200 	strtne	r0, [r3], #-512	; 0x200
     b80:	00053c06 	andeq	r3, r5, r6, lsl #24
     b84:	02520200 	subseq	r0, r2, #0
     b88:	00000025 	andeq	r0, r0, r5, lsr #32
     b8c:	06182302 	ldreq	r2, [r8], -r2, lsl #6
     b90:	00000404 	andeq	r0, r0, r4, lsl #8
     b94:	25025302 	strcs	r5, [r2, #-770]	; 0x302
     b98:	02000000 	andeq	r0, r0, #0
     b9c:	8c061c23 	stchi	12, cr1, [r6], {35}	; 0x23
     ba0:	02000003 	andeq	r0, r0, #3
     ba4:	00250254 	eoreq	r0, r5, r4, asr r2
     ba8:	23020000 	movwcs	r0, #8192	; 0x2000
     bac:	02c30620 	sbceq	r0, r3, #33554432	; 0x2000000
     bb0:	55020000 	strpl	r0, [r2]
     bb4:	00002502 	andeq	r2, r0, r2, lsl #10
     bb8:	24230200 	strtcs	r0, [r3], #-512	; 0x200
     bbc:	04a90500 	strteq	r0, [r9], #1280	; 0x500
     bc0:	56020000 	strpl	r0, [r2], -r0
     bc4:	0000d002 	andeq	sp, r0, r2
     bc8:	02140300 	andseq	r0, r4, #0
     bcc:	01d10297 			; <UNDEFINED> instruction: 0x01d10297
     bd0:	fb060000 	blx	180bda <_start-0x3fe87426>
     bd4:	02000004 	andeq	r0, r0, #4
     bd8:	00250298 	mlaeq	r5, r8, r2, r0
     bdc:	23020000 	movwcs	r0, #8192	; 0x2000
     be0:	05210600 	streq	r0, [r1, #-1536]!	; 0x600
     be4:	99020000 	stmdbls	r2, {}	; <UNPREDICTABLE>
     be8:	00002502 	andeq	r2, r0, r2, lsl #10
     bec:	04230200 	strteq	r0, [r3], #-512	; 0x200
     bf0:	00052a06 	andeq	r2, r5, r6, lsl #20
     bf4:	029a0200 	addseq	r0, sl, #0
     bf8:	00000025 	andeq	r0, r0, r5, lsr #32
     bfc:	06082302 	streq	r2, [r8], -r2, lsl #6
     c00:	00000533 	andeq	r0, r0, r3, lsr r5
     c04:	25029b02 	strcs	r9, [r2, #-2818]	; 0xb02
     c08:	02000000 	andeq	r0, r0, #0
     c0c:	82060c23 	andhi	r0, r6, #8960	; 0x2300
     c10:	02000004 	andeq	r0, r0, #4
     c14:	0025029c 	mlaeq	r5, ip, r2, r0
     c18:	23020000 	movwcs	r0, #8192	; 0x2000
     c1c:	67050010 	smladvs	r5, r0, r0, r0
     c20:	02000005 	andeq	r0, r0, #5
     c24:	017c029d 			; <UNDEFINED> instruction: 0x017c029d
     c28:	14030000 	strne	r0, [r3]
     c2c:	3202b502 	andcc	fp, r2, #8388608	; 0x800000
     c30:	06000002 	streq	r0, [r0], -r2
     c34:	000002b5 			; <UNDEFINED> instruction: 0x000002b5
     c38:	2502b602 	strcs	fp, [r2, #-1538]	; 0x602
     c3c:	02000000 	andeq	r0, r0, #0
     c40:	c2060023 	andgt	r0, r6, #35	; 0x23
     c44:	02000003 	andeq	r0, r0, #3
     c48:	002502b7 			; <UNDEFINED> instruction: 0x002502b7
     c4c:	23020000 	movwcs	r0, #8192	; 0x2000
     c50:	03cb0604 	biceq	r0, fp, #4194304	; 0x400000
     c54:	b8020000 	stmdalt	r2, {}	; <UNPREDICTABLE>
     c58:	00002502 	andeq	r2, r0, r2, lsl #10
     c5c:	08230200 	stmdaeq	r3!, {r9}
     c60:	0003d406 	andeq	sp, r3, r6, lsl #8
     c64:	02b90200 	adcseq	r0, r9, #0
     c68:	00000025 	andeq	r0, r0, r5, lsr #32
     c6c:	060c2302 	streq	r2, [ip], -r2, lsl #6
     c70:	000003dd 	ldrdeq	r0, [r0], -sp
     c74:	2502ba02 	strcs	fp, [r2, #-2562]	; 0xa02
     c78:	02000000 	andeq	r0, r0, #0
     c7c:	05001023 	streq	r1, [r0, #-35]	; 0x23
     c80:	00000478 	andeq	r0, r0, r8, ror r4
     c84:	dd02bb02 	vstrle	d11, [r2, #-8]
     c88:	03000001 	movweq	r0, #1
     c8c:	02f602a0 	rscseq	r0, r6, #10
     c90:	000004a8 	andeq	r0, r0, r8, lsr #9
     c94:	00054406 	andeq	r4, r5, r6, lsl #8
     c98:	02f70200 	rscseq	r0, r7, #0
     c9c:	00000025 	andeq	r0, r0, r5, lsr #32
     ca0:	06002302 	streq	r2, [r0], -r2, lsl #6
     ca4:	00000552 	andeq	r0, r0, r2, asr r5
     ca8:	2502f802 	strcs	pc, [r2, #-2050]	; 0x802
     cac:	02000000 	andeq	r0, r0, #0
     cb0:	52060423 	andpl	r0, r6, #587202560	; 0x23000000
     cb4:	02000004 	andeq	r0, r0, #4
     cb8:	002502f9 	strdeq	r0, [r5], -r9	; <UNPREDICTABLE>
     cbc:	23020000 	movwcs	r0, #8192	; 0x2000
     cc0:	046a0608 	strbteq	r0, [sl], #-1544	; 0x608
     cc4:	fa020000 	blx	80ccc <_start-0x3ff87334>
     cc8:	00002502 	andeq	r2, r0, r2, lsl #10
     ccc:	0c230200 	sfmeq	f0, 4, [r3]
     cd0:	00049406 	andeq	r9, r4, r6, lsl #8
     cd4:	02fb0200 	rscseq	r0, fp, #0
     cd8:	00000025 	andeq	r0, r0, r5, lsr #32
     cdc:	06102302 	ldreq	r2, [r0], -r2, lsl #6
     ce0:	00000395 	muleq	r0, r5, r3
     ce4:	2502fc02 	strcs	pc, [r2, #-3074]	; 0xc02
     ce8:	02000000 	andeq	r0, r0, #0
     cec:	13061423 	movwne	r1, #25635	; 0x6423
     cf0:	02000005 	andeq	r0, r0, #5
     cf4:	002502fd 	strdeq	r0, [r5], -sp	; <UNPREDICTABLE>
     cf8:	23020000 	movwcs	r0, #8192	; 0x2000
     cfc:	037e0618 	cmneq	lr, #25165824	; 0x1800000
     d00:	fe020000 	cdp2	0, 0, cr0, cr2, cr0, {0}
     d04:	00002502 	andeq	r2, r0, r2, lsl #10
     d08:	1c230200 	sfmne	f0, 4, [r3]
     d0c:	0003a306 	andeq	sl, r3, r6, lsl #6
     d10:	02ff0200 	rscseq	r0, pc, #0
     d14:	00000025 	andeq	r0, r0, r5, lsr #32
     d18:	06202302 	strteq	r2, [r0], -r2, lsl #6
     d1c:	000003ac 	andeq	r0, r0, ip, lsr #7
     d20:	25030002 	strcs	r0, [r3, #-2]
     d24:	02000000 	andeq	r0, r0, #0
     d28:	1a062423 	bne	189dbc <_start-0x3fe7e244>
     d2c:	02000003 	andeq	r0, r0, #3
     d30:	00250301 	eoreq	r0, r5, r1, lsl #6
     d34:	23020000 	movwcs	r0, #8192	; 0x2000
     d38:	03240628 	teqeq	r4, #41943040	; 0x2800000
     d3c:	02020000 	andeq	r0, r2, #0
     d40:	00002503 	andeq	r2, r0, r3, lsl #10
     d44:	2c230200 	sfmcs	f0, 4, [r3]
     d48:	00032e06 	andeq	r2, r3, r6, lsl #28
     d4c:	03030200 	movweq	r0, #12800	; 0x3200
     d50:	00000025 	andeq	r0, r0, r5, lsr #32
     d54:	06302302 	ldrteq	r2, [r0], -r2, lsl #6
     d58:	00000338 	andeq	r0, r0, r8, lsr r3
     d5c:	25030402 	strcs	r0, [r3, #-1026]	; 0x402
     d60:	02000000 	andeq	r0, r0, #0
     d64:	42063423 	andmi	r3, r6, #587202560	; 0x23000000
     d68:	02000003 	andeq	r0, r0, #3
     d6c:	00250305 	eoreq	r0, r5, r5, lsl #6
     d70:	23020000 	movwcs	r0, #8192	; 0x2000
     d74:	034c0638 	movteq	r0, #50744	; 0xc638
     d78:	06020000 	streq	r0, [r2], -r0
     d7c:	00002503 	andeq	r2, r0, r3, lsl #10
     d80:	3c230200 	sfmcc	f0, 4, [r3]
     d84:	00035606 	andeq	r5, r3, r6, lsl #12
     d88:	03070200 	movweq	r0, #29184	; 0x7200
     d8c:	00000025 	andeq	r0, r0, r5, lsr #32
     d90:	06402302 	strbeq	r2, [r0], -r2, lsl #6
     d94:	00000360 	andeq	r0, r0, r0, ror #6
     d98:	25030802 	strcs	r0, [r3, #-2050]	; 0x802
     d9c:	02000000 	andeq	r0, r0, #0
     da0:	6a064423 	bvs	191e34 <_start-0x3fe761cc>
     da4:	02000003 	andeq	r0, r0, #3
     da8:	00250309 	eoreq	r0, r5, r9, lsl #6
     dac:	23020000 	movwcs	r0, #8192	; 0x2000
     db0:	03740648 	cmneq	r4, #75497472	; 0x4800000
     db4:	0a020000 	beq	80dbc <_start-0x3ff87244>
     db8:	00002503 	andeq	r2, r0, r3, lsl #10
     dbc:	4c230200 	sfmmi	f0, 4, [r3]
     dc0:	0003f006 	andeq	pc, r3, r6
     dc4:	030b0200 	movweq	r0, #45568	; 0xb200
     dc8:	00000025 	andeq	r0, r0, r5, lsr #32
     dcc:	06502302 	ldrbeq	r2, [r0], -r2, lsl #6
     dd0:	000003fa 	strdeq	r0, [r0], -sl
     dd4:	25030c02 	strcs	r0, [r3, #-3074]	; 0xc02
     dd8:	02000000 	andeq	r0, r0, #0
     ddc:	e6065423 	str	r5, [r6], -r3, lsr #8
     de0:	02000003 	andeq	r0, r0, #3
     de4:	0025030d 	eoreq	r0, r5, sp, lsl #6
     de8:	23020000 	movwcs	r0, #8192	; 0x2000
     dec:	040c0658 	streq	r0, [ip], #-1624	; 0x658
     df0:	0e020000 	cdpeq	0, 0, cr0, cr2, cr0, {0}
     df4:	00002503 	andeq	r2, r0, r3, lsl #10
     df8:	5c230200 	sfmpl	f0, 4, [r3]
     dfc:	00041606 	andeq	r1, r4, r6, lsl #12
     e00:	030f0200 	movweq	r0, #61952	; 0xf200
     e04:	00000025 	andeq	r0, r0, r5, lsr #32
     e08:	06602302 	strbteq	r2, [r0], -r2, lsl #6
     e0c:	00000420 	andeq	r0, r0, r0, lsr #8
     e10:	25031002 	strcs	r1, [r3, #-2]
     e14:	02000000 	andeq	r0, r0, #0
     e18:	2a066423 	bcs	199eac <_start-0x3fe6e154>
     e1c:	02000004 	andeq	r0, r0, #4
     e20:	00250311 	eoreq	r0, r5, r1, lsl r3
     e24:	23020000 	movwcs	r0, #8192	; 0x2000
     e28:	04340668 	ldrteq	r0, [r4], #-1640	; 0x668
     e2c:	12020000 	andne	r0, r2, #0
     e30:	00002503 	andeq	r2, r0, r3, lsl #10
     e34:	6c230200 	sfmvs	f0, 4, [r3]
     e38:	00043e06 	andeq	r3, r4, r6, lsl #28
     e3c:	03130200 	tsteq	r3, #0
     e40:	00000025 	andeq	r0, r0, r5, lsr #32
     e44:	06702302 	ldrbteq	r2, [r0], -r2, lsl #6
     e48:	00000448 	andeq	r0, r0, r8, asr #8
     e4c:	25031402 	strcs	r1, [r3, #-1026]	; 0x402
     e50:	02000000 	andeq	r0, r0, #0
     e54:	ae067423 	cdpge	4, 0, cr7, cr6, cr3, {1}
     e58:	02000004 	andeq	r0, r0, #4
     e5c:	00250315 	eoreq	r0, r5, r5, lsl r3
     e60:	23020000 	movwcs	r0, #8192	; 0x2000
     e64:	056c0678 	strbeq	r0, [ip, #-1656]!	; 0x678
     e68:	16020000 	strne	r0, [r2], -r0
     e6c:	00002503 	andeq	r2, r0, r3, lsl #10
     e70:	7c230200 	sfmvc	f0, 4, [r3]
     e74:	0004bf06 	andeq	fp, r4, r6, lsl #30
     e78:	03170200 	tsteq	r7, #0
     e7c:	00000025 	andeq	r0, r0, r5, lsr #32
     e80:	01802303 	orreq	r2, r0, r3, lsl #6
     e84:	0004c906 	andeq	ip, r4, r6, lsl #18
     e88:	03180200 	tsteq	r8, #0
     e8c:	00000025 	andeq	r0, r0, r5, lsr #32
     e90:	01842303 	orreq	r2, r4, r3, lsl #6
     e94:	0004d306 	andeq	sp, r4, r6, lsl #6
     e98:	03190200 	tsteq	r9, #0
     e9c:	00000025 	andeq	r0, r0, r5, lsr #32
     ea0:	01882303 	orreq	r2, r8, r3, lsl #6
     ea4:	0004dd06 	andeq	sp, r4, r6, lsl #26
     ea8:	031a0200 	tsteq	sl, #0
     eac:	00000025 	andeq	r0, r0, r5, lsr #32
     eb0:	018c2303 	orreq	r2, ip, r3, lsl #6
     eb4:	0004e706 	andeq	lr, r4, r6, lsl #14
     eb8:	031b0200 	tsteq	fp, #0
     ebc:	00000025 	andeq	r0, r0, r5, lsr #32
     ec0:	01902303 	orrseq	r2, r0, r3, lsl #6
     ec4:	0004f106 	andeq	pc, r4, r6, lsl #2
     ec8:	031c0200 	tsteq	ip, #0
     ecc:	00000025 	andeq	r0, r0, r5, lsr #32
     ed0:	01942303 	orrseq	r2, r4, r3, lsl #6
     ed4:	00031006 	andeq	r1, r3, r6
     ed8:	031d0200 	tsteq	sp, #0
     edc:	00000025 	andeq	r0, r0, r5, lsr #32
     ee0:	01982303 	orrseq	r2, r8, r3, lsl #6
     ee4:	00050906 	andeq	r0, r5, r6, lsl #18
     ee8:	031e0200 	tsteq	lr, #0
     eec:	00000025 	andeq	r0, r0, r5, lsr #32
     ef0:	019c2303 	orrseq	r2, ip, r3, lsl #6
     ef4:	047d0500 	ldrbteq	r0, [sp], #-1280	; 0x500
     ef8:	1f020000 	svcne	0x00020000
     efc:	00023e03 	andeq	r3, r2, r3, lsl #28
     f00:	07040200 	streq	r0, [r4, -r0, lsl #4]
     f04:	00000079 	andeq	r0, r0, r9, ror r0
     f08:	048b0107 	streq	r0, [fp], #263	; 0x107
     f0c:	0a010000 	beq	40f14 <_start-0x3ffc70ec>
     f10:	4000969c 	mulmi	r0, ip, r6
     f14:	400096dc 	ldrdmi	r9, [r0], -ip
     f18:	000002d8 	ldrdeq	r0, [r0], -r8
     f1c:	02d10107 	sbcseq	r0, r1, #-1073741823	; 0xc0000001
     f20:	12010000 	andne	r0, r1, #0
     f24:	400096dc 	ldrdmi	r9, [r0], -ip
     f28:	4000971c 	andmi	r9, r0, ip, lsl r7
     f2c:	00000304 	andeq	r0, r0, r4, lsl #6
     f30:	02e80107 	rsceq	r0, r8, #-1073741823	; 0xc0000001
     f34:	18010000 	stmdane	r1, {}	; <UNPREDICTABLE>
     f38:	4000971c 	andmi	r9, r0, ip, lsl r7
     f3c:	400098d0 	ldrdmi	r9, [r0], -r0
     f40:	00000330 	andeq	r0, r0, r0, lsr r3
     f44:	02da0107 	sbcseq	r0, sl, #-1073741823	; 0xc0000001
     f48:	48010000 	stmdami	r1, {}	; <UNPREDICTABLE>
     f4c:	400098d0 	ldrdmi	r9, [r0], -r0
     f50:	40009924 	andmi	r9, r0, r4, lsr #18
     f54:	0000035c 	andeq	r0, r0, ip, asr r3
     f58:	03060107 	movweq	r0, #24839	; 0x6107
     f5c:	57010000 	strpl	r0, [r1, -r0]
     f60:	40009924 	andmi	r9, r0, r4, lsr #18
     f64:	40009a1c 	andmi	r9, r0, ip, lsl sl
     f68:	00000388 	andeq	r0, r0, r8, lsl #7
     f6c:	00053608 	andeq	r3, r5, r8, lsl #12
     f70:	00052f00 	andeq	r2, r5, r0, lsl #30
     f74:	04b40900 	ldrteq	r0, [r4], #2304	; 0x900
     f78:	009f0000 	addseq	r0, pc, r0
     f7c:	0005360a 	andeq	r3, r5, sl, lsl #12
     f80:	0c000b00 	stceq	11, cr0, [r0], {0}
     f84:	00052f04 	andeq	r2, r5, r4, lsl #30
     f88:	02f10d00 	rscseq	r0, r1, #0
     f8c:	05010000 	streq	r0, [r1]
     f90:	0000051f 	andeq	r0, r0, pc, lsl r5
     f94:	f10d0101 			; <UNDEFINED> instruction: 0xf10d0101
     f98:	01000002 	tsteq	r0, r2
     f9c:	00051f05 	andeq	r1, r5, r5, lsl #30
     fa0:	00010100 	andeq	r0, r1, r0, lsl #2
     fa4:	0000038e 	andeq	r0, r0, lr, lsl #7
     fa8:	03ba0002 			; <UNDEFINED> instruction: 0x03ba0002
     fac:	01040000 	mrseq	r0, (UNDEF: 4)
     fb0:	0000006d 	andeq	r0, r0, sp, rrx
     fb4:	0005aa01 	andeq	sl, r5, r1, lsl #20
     fb8:	0000d800 	andeq	sp, r0, r0, lsl #16
     fbc:	009a1c00 	addseq	r1, sl, r0, lsl #24
     fc0:	009e0840 	addseq	r0, lr, r0, asr #16
     fc4:	00051540 	andeq	r1, r5, r0, asr #10
     fc8:	07040200 	streq	r0, [r4, -r0, lsl #4]
     fcc:	0000007e 	andeq	r0, r0, lr, ror r0
     fd0:	ec021803 	stc	8, cr1, [r2], {3}
     fd4:	00009001 	andeq	r9, r0, r1
     fd8:	4f430400 	svcmi	0x00430400
     fdc:	ed02004e 	stc	0, cr0, [r2, #-312]	; 0xfffffec8
     fe0:	00002501 	andeq	r2, r0, r1, lsl #10
     fe4:	00230200 	eoreq	r0, r3, r0, lsl #4
     fe8:	54414404 	strbpl	r4, [r1], #-1028	; 0x404
     fec:	01ee0200 	mvneq	r0, r0, lsl #4
     ff0:	00000025 	andeq	r0, r0, r5, lsr #32
     ff4:	04042302 	streq	r2, [r4], #-770	; 0x302
     ff8:	00445550 	subeq	r5, r4, r0, asr r5
     ffc:	2501ef02 	strcs	lr, [r1, #-3842]	; 0xf02
    1000:	02000000 	andeq	r0, r0, #0
    1004:	44040823 	strmi	r0, [r4], #-2083	; 0x823
    1008:	02005652 	andeq	r5, r0, #85983232	; 0x5200000
    100c:	002501f0 	strdeq	r0, [r5], -r0	; <UNPREDICTABLE>
    1010:	23020000 	movwcs	r0, #8192	; 0x2000
    1014:	0193050c 	orrseq	r0, r3, ip, lsl #10
    1018:	f1020000 	cps	#0
    101c:	00002501 	andeq	r2, r0, r1, lsl #10
    1020:	10230200 	eorne	r0, r3, r0, lsl #4
    1024:	0001c905 	andeq	ip, r1, r5, lsl #18
    1028:	01f20200 	mvnseq	r0, r0, lsl #4
    102c:	00000025 	andeq	r0, r0, r5, lsr #32
    1030:	00142302 	andseq	r2, r4, r2, lsl #6
    1034:	00058106 	andeq	r8, r5, r6, lsl #2
    1038:	01f30200 	mvnseq	r0, r0, lsl #4
    103c:	0000002c 	andeq	r0, r0, ip, lsr #32
    1040:	00021003 	andeq	r1, r2, r3
    1044:	0000e202 	andeq	lr, r0, r2, lsl #4
    1048:	4f430400 	svcmi	0x00430400
    104c:	0102004e 	tsteq	r2, lr, asr #32
    1050:	00002502 	andeq	r2, r0, r2, lsl #10
    1054:	00230200 	eoreq	r0, r3, r0, lsl #4
    1058:	54414404 	strbpl	r4, [r1], #-1028	; 0x404
    105c:	02020200 	andeq	r0, r2, #0
    1060:	00000025 	andeq	r0, r0, r5, lsr #32
    1064:	04042302 	streq	r2, [r4], #-770	; 0x302
    1068:	00445550 	subeq	r5, r4, r0, asr r5
    106c:	25020302 	strcs	r0, [r2, #-770]	; 0x302
    1070:	02000000 	andeq	r0, r0, #0
    1074:	44040823 	strmi	r0, [r4], #-2083	; 0x823
    1078:	02005652 	andeq	r5, r0, #85983232	; 0x5200000
    107c:	00250204 	eoreq	r0, r5, r4, lsl #4
    1080:	23020000 	movwcs	r0, #8192	; 0x2000
    1084:	6006000c 	andvs	r0, r6, ip
    1088:	02000004 	andeq	r0, r0, #4
    108c:	009c0205 	addseq	r0, ip, r5, lsl #4
    1090:	10030000 	andne	r0, r3, r0
    1094:	34020902 	strcc	r0, [r2], #-2306	; 0x902
    1098:	04000001 	streq	r0, [r0], #-1
    109c:	004e4f43 	subeq	r4, lr, r3, asr #30
    10a0:	25020a02 	strcs	r0, [r2, #-2562]	; 0xa02
    10a4:	02000000 	andeq	r0, r0, #0
    10a8:	44040023 	strmi	r0, [r4], #-35	; 0x23
    10ac:	02005441 	andeq	r5, r0, #1090519040	; 0x41000000
    10b0:	0025020b 	eoreq	r0, r5, fp, lsl #4
    10b4:	23020000 	movwcs	r0, #8192	; 0x2000
    10b8:	55500404 	ldrbpl	r0, [r0, #-1028]	; 0x404
    10bc:	0c020044 	stceq	0, cr0, [r2], {68}	; 0x44
    10c0:	00002502 	andeq	r2, r0, r2, lsl #10
    10c4:	08230200 	stmdaeq	r3!, {r9}
    10c8:	56524404 	ldrbpl	r4, [r2], -r4, lsl #8
    10cc:	020d0200 	andeq	r0, sp, #0
    10d0:	00000025 	andeq	r0, r0, r5, lsr #32
    10d4:	000c2302 	andeq	r2, ip, r2, lsl #6
    10d8:	0005bd06 	andeq	fp, r5, r6, lsl #26
    10dc:	020e0200 	andeq	r0, lr, #0
    10e0:	000000ee 	andeq	r0, r0, lr, ror #1
    10e4:	4b022803 	blmi	8b0f8 <_start-0x3ff7cf08>
    10e8:	0001e002 	andeq	lr, r1, r2
    10ec:	05600500 	strbeq	r0, [r0, #-1280]!	; 0x500
    10f0:	4c020000 	stcmi	0, cr0, [r2], {0}
    10f4:	00002502 	andeq	r2, r0, r2, lsl #10
    10f8:	00230200 	eoreq	r0, r3, r0, lsl #4
    10fc:	0004b805 	andeq	fp, r4, r5, lsl #16
    1100:	024d0200 	subeq	r0, sp, #0
    1104:	00000025 	andeq	r0, r0, r5, lsr #32
    1108:	05042302 	streq	r2, [r4, #-770]	; 0x302
    110c:	000002ff 	strdeq	r0, [r0], -pc	; <UNPREDICTABLE>
    1110:	25024e02 	strcs	r4, [r2, #-3586]	; 0xe02
    1114:	02000000 	andeq	r0, r0, #0
    1118:	b5050823 	strlt	r0, [r5, #-2083]	; 0x823
    111c:	02000003 	andeq	r0, r0, #3
    1120:	0025024f 	eoreq	r0, r5, pc, asr #4
    1124:	23020000 	movwcs	r0, #8192	; 0x2000
    1128:	02f7050c 	rscseq	r0, r7, #50331648	; 0x3000000
    112c:	50020000 	andpl	r0, r2, r0
    1130:	00002502 	andeq	r2, r0, r2, lsl #10
    1134:	10230200 	eorne	r0, r3, r0, lsl #4
    1138:	0004a205 	andeq	sl, r4, r5, lsl #4
    113c:	02510200 	subseq	r0, r1, #0
    1140:	00000025 	andeq	r0, r0, r5, lsr #32
    1144:	05142302 	ldreq	r2, [r4, #-770]	; 0x302
    1148:	0000053c 	andeq	r0, r0, ip, lsr r5
    114c:	25025202 	strcs	r5, [r2, #-514]	; 0x202
    1150:	02000000 	andeq	r0, r0, #0
    1154:	04051823 	streq	r1, [r5], #-2083	; 0x823
    1158:	02000004 	andeq	r0, r0, #4
    115c:	00250253 	eoreq	r0, r5, r3, asr r2
    1160:	23020000 	movwcs	r0, #8192	; 0x2000
    1164:	038c051c 	orreq	r0, ip, #117440512	; 0x7000000
    1168:	54020000 	strpl	r0, [r2]
    116c:	00002502 	andeq	r2, r0, r2, lsl #10
    1170:	20230200 	eorcs	r0, r3, r0, lsl #4
    1174:	0002c305 	andeq	ip, r2, r5, lsl #6
    1178:	02550200 	subseq	r0, r5, #0
    117c:	00000025 	andeq	r0, r0, r5, lsr #32
    1180:	00242302 	eoreq	r2, r4, r2, lsl #6
    1184:	0004a906 	andeq	sl, r4, r6, lsl #18
    1188:	02560200 	subseq	r0, r6, #0
    118c:	00000140 	andeq	r0, r0, r0, asr #2
    1190:	79070402 	stmdbvc	r7, {r1, sl}
    1194:	07000000 	streq	r0, [r0, -r0]
    1198:	00057601 	andeq	r7, r5, r1, lsl #12
    119c:	01190100 	tsteq	r9, r0, lsl #2
    11a0:	40009a1c 	andmi	r9, r0, ip, lsl sl
    11a4:	40009ab4 			; <UNDEFINED> instruction: 0x40009ab4
    11a8:	000003b4 			; <UNDEFINED> instruction: 0x000003b4
    11ac:	00000232 	andeq	r0, r0, r2, lsr r2
    11b0:	00736d08 	rsbseq	r6, r3, r8, lsl #26
    11b4:	02321901 	eorseq	r1, r2, #16384	; 0x4000
    11b8:	91020000 	mrsls	r0, (UNDEF: 2)
    11bc:	00690970 	rsbeq	r0, r9, r0, ror r9
    11c0:	02321a01 	eorseq	r1, r2, #4096	; 0x1000
    11c4:	91020000 	mrsls	r0, (UNDEF: 2)
    11c8:	006a0978 	rsbeq	r0, sl, r8, ror r9
    11cc:	02321a01 	eorseq	r1, r2, #4096	; 0x1000
    11d0:	91020000 	mrsls	r0, (UNDEF: 2)
    11d4:	040a0074 	streq	r0, [sl], #-116	; 0x74
    11d8:	746e6905 	strbtvc	r6, [lr], #-2309	; 0x905
    11dc:	92010700 	andls	r0, r1, #0
    11e0:	01000005 	tsteq	r0, r5
    11e4:	9ab40121 	bls	fed01670 <key_number+0xbecf6870>
    11e8:	9b444000 	blls	11111f0 <_start-0x3eef6e10>
    11ec:	03e04000 	mvneq	r4, #0
    11f0:	02780000 	rsbseq	r0, r8, #0
    11f4:	75080000 	strvc	r0, [r8]
    11f8:	21010073 	tstcs	r1, r3, ror r0
    11fc:	00000232 	andeq	r0, r0, r2, lsr r2
    1200:	09709102 	ldmdbeq	r0!, {r1, r8, ip, pc}^
    1204:	22010069 	andcs	r0, r1, #105	; 0x69
    1208:	00000232 	andeq	r0, r0, r2, lsr r2
    120c:	09789102 	ldmdbeq	r8!, {r1, r8, ip, pc}^
    1210:	2201006a 	andcs	r0, r1, #106	; 0x6a
    1214:	00000232 	andeq	r0, r0, r2, lsr r2
    1218:	00749102 	rsbseq	r9, r4, r2, lsl #2
    121c:	05860107 	streq	r0, [r6, #263]	; 0x107
    1220:	2b010000 	blcs	41228 <_start-0x3ffc6dd8>
    1224:	009b4401 	addseq	r4, fp, r1, lsl #8
    1228:	009bc840 	addseq	ip, fp, r0, asr #16
    122c:	00040c40 	andeq	r0, r4, r0, asr #24
    1230:	0002af00 	andeq	sl, r2, r0, lsl #30
    1234:	059f0b00 	ldreq	r0, [pc, #2816]	; 1d3c <_start-0x400062c4>
    1238:	2c010000 	stccs	0, cr0, [r1], {0}
    123c:	00000232 	andeq	r0, r0, r2, lsr r2
    1240:	0c749102 	ldfeqp	f1, [r4], #-8
    1244:	00013d01 	andeq	r3, r1, r1, lsl #26
    1248:	322e0100 	eorcc	r0, lr, #0
    124c:	01000002 	tsteq	r0, r2
    1250:	0e00000d 	cdpeq	0, 0, cr0, cr0, cr13, {0}
    1254:	00058d01 	andeq	r8, r5, r1, lsl #26
    1258:	01370100 	teqeq	r7, r0, lsl #2
    125c:	00000232 	andeq	r0, r0, r2, lsr r2
    1260:	40009bc8 	andmi	r9, r0, r8, asr #23
    1264:	40009c34 	andmi	r9, r0, r4, lsr ip
    1268:	00000438 	andeq	r0, r0, r8, lsr r4
    126c:	000002f4 	strdeq	r0, [r0], -r4
    1270:	01006309 	tsteq	r0, r9, lsl #6
    1274:	00023239 	andeq	r3, r2, r9, lsr r2
    1278:	70910200 	addsvc	r0, r1, r0, lsl #4
    127c:	01006909 	tsteq	r0, r9, lsl #18
    1280:	00023239 	andeq	r3, r2, r9, lsr r2
    1284:	74910200 	ldrvc	r0, [r1], #512	; 0x200
    1288:	0177010c 	cmneq	r7, ip, lsl #2
    128c:	3b010000 	blcc	41294 <_start-0x3ffc6d6c>
    1290:	00000232 	andeq	r0, r0, r2, lsr r2
    1294:	00000d01 	andeq	r0, r0, r1, lsl #26
    1298:	05b1010f 	ldreq	r0, [r1, #271]!	; 0x10f
    129c:	52010000 	andpl	r0, r1, #0
    12a0:	40009c34 	andmi	r9, r0, r4, lsr ip
    12a4:	40009e08 	andmi	r9, r0, r8, lsl #28
    12a8:	00000464 	andeq	r0, r0, r4, ror #8
    12ac:	00000319 	andeq	r0, r0, r9, lsl r3
    12b0:	01006909 	tsteq	r0, r9, lsl #18
    12b4:	00023253 	andeq	r3, r2, r3, asr r2
    12b8:	74910200 	ldrvc	r0, [r1], #512	; 0x200
    12bc:	03291000 	teqeq	r9, #0
    12c0:	03290000 	teqeq	r9, #0
    12c4:	ec110000 	ldc	0, cr0, [r1], {0}
    12c8:	c7000001 	strgt	r0, [r0, -r1]
    12cc:	08010200 	stmdaeq	r1, {r9}
    12d0:	00000063 	andeq	r0, r0, r3, rrx
    12d4:	01006212 	tsteq	r0, r2, lsl r2
    12d8:	00033b0d 	andeq	r3, r3, sp, lsl #22
    12dc:	13010100 	movwne	r0, #4352	; 0x1100
    12e0:	00000319 	andeq	r0, r0, r9, lsl r3
    12e4:	00035710 	andeq	r5, r3, r0, lsl r7
    12e8:	00035000 	andeq	r5, r3, r0
    12ec:	01ec1100 	mvneq	r1, r0, lsl #2
    12f0:	009f0000 	addseq	r0, pc, r0
    12f4:	00035714 	andeq	r5, r3, r4, lsl r7
    12f8:	15000d00 	strne	r0, [r0, #-3328]	; 0xd00
    12fc:	00035004 	andeq	r5, r3, r4
    1300:	02f11600 	rscseq	r1, r1, #0
    1304:	2a010000 	bcs	4130c <_start-0x3ffc6cf4>
    1308:	00000340 	andeq	r0, r0, r0, asr #6
    130c:	62170101 	andsvs	r0, r7, #1073741824	; 0x40000000
    1310:	7a0d0100 	bvc	341718 <_start-0x3fcc68e8>
    1314:	01000003 	tsteq	r0, r3
    1318:	a11c0305 	tstge	ip, r5, lsl #6
    131c:	19134000 	ldmdbne	r3, {lr}
    1320:	18000003 	stmdane	r0, {r0, r1}
    1324:	000002f1 	strdeq	r0, [r0], -r1
    1328:	03402a01 	movteq	r2, #2561	; 0xa01
    132c:	05010000 	streq	r0, [r1]
    1330:	00ab8003 	adceq	r8, fp, r3
    1334:	06ee0040 	strbteq	r0, [lr], r0, asr #32
    1338:	00020000 	andeq	r0, r2, r0
    133c:	00000511 	andeq	r0, r0, r1, lsl r5
    1340:	006d0104 	rsbeq	r0, sp, r4, lsl #2
    1344:	e5010000 	str	r0, [r1]
    1348:	d8000005 	stmdale	r0, {r0, r2}
    134c:	08000000 	stmdaeq	r0, {}	; <UNPREDICTABLE>
    1350:	c440009e 	strbgt	r0, [r0], #-158	; 0x9e
    1354:	e94000a0 	stmdb	r0, {r5, r7}^
    1358:	02000005 	andeq	r0, r0, #5
    135c:	012d0248 	teqeq	sp, r8, asr #4
    1360:	0000013d 	andeq	r0, r0, sp, lsr r1
    1364:	00025e03 	andeq	r5, r2, r3, lsl #28
    1368:	012e0200 	teqeq	lr, r0, lsl #4
    136c:	0000013d 	andeq	r0, r0, sp, lsr r1
    1370:	03002302 	movweq	r2, #770	; 0x302
    1374:	00000264 	andeq	r0, r0, r4, ror #4
    1378:	3d012f02 	stccc	15, cr2, [r1, #-8]
    137c:	02000001 	andeq	r0, r0, #1
    1380:	74030423 	strvc	r0, [r3], #-1059	; 0x423
    1384:	02000002 	andeq	r0, r0, #2
    1388:	013d0130 	teqeq	sp, r0, lsr r1
    138c:	23020000 	movwcs	r0, #8192	; 0x2000
    1390:	02a70308 	adceq	r0, r7, #536870912	; 0x20000000
    1394:	31020000 	mrscc	r0, (UNDEF: 2)
    1398:	00013d01 	andeq	r3, r1, r1, lsl #26
    139c:	0c230200 	sfmeq	f0, 4, [r3]
    13a0:	00020c03 	andeq	r0, r2, r3, lsl #24
    13a4:	01320200 	teqeq	r2, r0, lsl #4
    13a8:	0000013d 	andeq	r0, r0, sp, lsr r1
    13ac:	03102302 	tsteq	r0, #134217728	; 0x8000000
    13b0:	00000279 	andeq	r0, r0, r9, ror r2
    13b4:	3d013302 	stccc	3, cr3, [r1, #-8]
    13b8:	02000001 	andeq	r0, r0, #1
    13bc:	05031423 	streq	r1, [r3, #-1059]	; 0x423
    13c0:	02000002 	andeq	r0, r0, #2
    13c4:	013d0134 	teqeq	sp, r4, lsr r1
    13c8:	23020000 	movwcs	r0, #8192	; 0x2000
    13cc:	021f0318 	andseq	r0, pc, #1610612736	; 0x60000000
    13d0:	35020000 	strcc	r0, [r2]
    13d4:	00013d01 	andeq	r3, r1, r1, lsl #26
    13d8:	1c230200 	sfmne	f0, 4, [r3]
    13dc:	00028003 	andeq	r8, r2, r3
    13e0:	01360200 	teqeq	r6, r0, lsl #4
    13e4:	0000013d 	andeq	r0, r0, sp, lsr r1
    13e8:	03202302 	teqeq	r0, #134217728	; 0x8000000
    13ec:	00000250 	andeq	r0, r0, r0, asr r2
    13f0:	3d013702 	stccc	7, cr3, [r1, #-8]
    13f4:	02000001 	andeq	r0, r0, #1
    13f8:	26032423 	strcs	r2, [r3], -r3, lsr #8
    13fc:	02000002 	andeq	r0, r0, #2
    1400:	013d0138 	teqeq	sp, r8, lsr r1
    1404:	23020000 	movwcs	r0, #8192	; 0x2000
    1408:	02870328 	addeq	r0, r7, #-1610612736	; 0xa0000000
    140c:	39020000 	stmdbcc	r2, {}	; <UNPREDICTABLE>
    1410:	00013d01 	andeq	r3, r1, r1, lsl #26
    1414:	2c230200 	sfmcs	f0, 4, [r3]
    1418:	00025703 	andeq	r5, r2, r3, lsl #14
    141c:	013a0200 	teqeq	sl, r0, lsl #4
    1420:	0000013d 	andeq	r0, r0, sp, lsr r1
    1424:	03302302 	teqeq	r0, #134217728	; 0x8000000
    1428:	0000022d 	andeq	r0, r0, sp, lsr #4
    142c:	3d013b02 	vstrcc	d3, [r1, #-8]
    1430:	02000001 	andeq	r0, r0, #1
    1434:	8e033423 	cdphi	4, 0, cr3, cr3, cr3, {1}
    1438:	02000002 	andeq	r0, r0, #2
    143c:	013d013c 	teqeq	sp, ip, lsr r1
    1440:	23020000 	movwcs	r0, #8192	; 0x2000
    1444:	02ae0338 	adceq	r0, lr, #-536870912	; 0xe0000000
    1448:	3d020000 	stccc	0, cr0, [r2]
    144c:	00013d01 	andeq	r3, r1, r1, lsl #26
    1450:	3c230200 	sfmcc	f0, 4, [r3]
    1454:	00029503 	andeq	r9, r2, r3, lsl #10
    1458:	013e0200 	teqeq	lr, r0, lsl #4
    145c:	0000013d 	andeq	r0, r0, sp, lsr r1
    1460:	03402302 	movteq	r2, #770	; 0x302
    1464:	0000029c 	muleq	r0, ip, r2
    1468:	3d013f02 	stccc	15, cr3, [r1, #-8]
    146c:	02000001 	andeq	r0, r0, #1
    1470:	04004423 	streq	r4, [r0], #-1059	; 0x423
    1474:	007e0704 	rsbseq	r0, lr, r4, lsl #14
    1478:	70050000 	andvc	r0, r5, r0
    147c:	02006d77 	andeq	r6, r0, #7616	; 0x1dc0
    1480:	00250140 	eoreq	r0, r5, r0, asr #2
    1484:	10020000 	andne	r0, r2, r0
    1488:	96020002 	strls	r0, [r2], -r2
    148c:	06000001 	streq	r0, [r0], -r1
    1490:	004e4f43 	subeq	r4, lr, r3, asr #30
    1494:	3d020102 	stfccs	f0, [r2, #-8]
    1498:	02000001 	andeq	r0, r0, #1
    149c:	44060023 	strmi	r0, [r6], #-35	; 0x23
    14a0:	02005441 	andeq	r5, r0, #1090519040	; 0x41000000
    14a4:	013d0202 	teqeq	sp, r2, lsl #4
    14a8:	23020000 	movwcs	r0, #8192	; 0x2000
    14ac:	55500604 	ldrbpl	r0, [r0, #-1540]	; 0x604
    14b0:	03020044 	movweq	r0, #8260	; 0x2044
    14b4:	00013d02 	andeq	r3, r1, r2, lsl #26
    14b8:	08230200 	stmdaeq	r3!, {r9}
    14bc:	56524406 	ldrbpl	r4, [r2], -r6, lsl #8
    14c0:	02040200 	andeq	r0, r4, #0
    14c4:	0000013d 	andeq	r0, r0, sp, lsr r1
    14c8:	000c2302 	andeq	r2, ip, r2, lsl #6
    14cc:	00046007 	andeq	r6, r4, r7
    14d0:	02050200 	andeq	r0, r5, #0
    14d4:	00000150 	andeq	r0, r0, r0, asr r1
    14d8:	12021002 	andne	r1, r2, #2
    14dc:	0001e802 	andeq	lr, r1, r2, lsl #16
    14e0:	4f430600 	svcmi	0x00430600
    14e4:	1302004e 	movwne	r0, #8270	; 0x204e
    14e8:	00013d02 	andeq	r3, r1, r2, lsl #26
    14ec:	00230200 	eoreq	r0, r3, r0, lsl #4
    14f0:	54414406 	strbpl	r4, [r1], #-1030	; 0x406
    14f4:	02140200 	andseq	r0, r4, #0
    14f8:	0000013d 	andeq	r0, r0, sp, lsr r1
    14fc:	06042302 	streq	r2, [r4], -r2, lsl #6
    1500:	00445550 	subeq	r5, r4, r0, asr r5
    1504:	3d021502 	cfstr32cc	mvfx1, [r2, #-8]
    1508:	02000001 	andeq	r0, r0, #1
    150c:	44060823 	strmi	r0, [r6], #-2083	; 0x823
    1510:	02005652 	andeq	r5, r0, #85983232	; 0x5200000
    1514:	013d0216 	teqeq	sp, r6, lsl r2
    1518:	23020000 	movwcs	r0, #8192	; 0x2000
    151c:	6507000c 	strvs	r0, [r7, #-12]
    1520:	02000004 	andeq	r0, r0, #4
    1524:	01a20217 			; <UNDEFINED> instruction: 0x01a20217
    1528:	28020000 	stmdacs	r2, {}	; <UNPREDICTABLE>
    152c:	94024b02 	strls	r4, [r2], #-2818	; 0xb02
    1530:	03000002 	movweq	r0, #2
    1534:	00000560 	andeq	r0, r0, r0, ror #10
    1538:	3d024c02 	stccc	12, cr4, [r2, #-8]
    153c:	02000001 	andeq	r0, r0, #1
    1540:	b8030023 	stmdalt	r3, {r0, r1, r5}
    1544:	02000004 	andeq	r0, r0, #4
    1548:	013d024d 	teqeq	sp, sp, asr #4
    154c:	23020000 	movwcs	r0, #8192	; 0x2000
    1550:	02ff0304 	rscseq	r0, pc, #268435456	; 0x10000000
    1554:	4e020000 	cdpmi	0, 0, cr0, cr2, cr0, {0}
    1558:	00013d02 	andeq	r3, r1, r2, lsl #26
    155c:	08230200 	stmdaeq	r3!, {r9}
    1560:	0003b503 	andeq	fp, r3, r3, lsl #10
    1564:	024f0200 	subeq	r0, pc, #0
    1568:	0000013d 	andeq	r0, r0, sp, lsr r1
    156c:	030c2302 	movweq	r2, #49922	; 0xc302
    1570:	000002f7 	strdeq	r0, [r0], -r7
    1574:	3d025002 	stccc	0, cr5, [r2, #-8]
    1578:	02000001 	andeq	r0, r0, #1
    157c:	a2031023 	andge	r1, r3, #35	; 0x23
    1580:	02000004 	andeq	r0, r0, #4
    1584:	013d0251 	teqeq	sp, r1, asr r2
    1588:	23020000 	movwcs	r0, #8192	; 0x2000
    158c:	053c0314 	ldreq	r0, [ip, #-788]!	; 0x314
    1590:	52020000 	andpl	r0, r2, #0
    1594:	00013d02 	andeq	r3, r1, r2, lsl #26
    1598:	18230200 	stmdane	r3!, {r9}
    159c:	00040403 	andeq	r0, r4, r3, lsl #8
    15a0:	02530200 	subseq	r0, r3, #0
    15a4:	0000013d 	andeq	r0, r0, sp, lsr r1
    15a8:	031c2302 	tsteq	ip, #134217728	; 0x8000000
    15ac:	0000038c 	andeq	r0, r0, ip, lsl #7
    15b0:	3d025402 	cfstrscc	mvf5, [r2, #-8]
    15b4:	02000001 	andeq	r0, r0, #1
    15b8:	c3032023 	movwgt	r2, #12323	; 0x3023
    15bc:	02000002 	andeq	r0, r0, #2
    15c0:	013d0255 	teqeq	sp, r5, asr r2
    15c4:	23020000 	movwcs	r0, #8192	; 0x2000
    15c8:	a9070024 	stmdbge	r7, {r2, r5}
    15cc:	02000004 	andeq	r0, r0, #4
    15d0:	01f40256 	mvnseq	r0, r6, asr r2
    15d4:	14020000 	strne	r0, [r2]
    15d8:	f5029702 			; <UNDEFINED> instruction: 0xf5029702
    15dc:	03000002 	movweq	r0, #2
    15e0:	000004fb 	strdeq	r0, [r0], -fp
    15e4:	3d029802 	stccc	8, cr9, [r2, #-8]
    15e8:	02000001 	andeq	r0, r0, #1
    15ec:	21030023 	tstcs	r3, r3, lsr #32
    15f0:	02000005 	andeq	r0, r0, #5
    15f4:	013d0299 			; <UNDEFINED> instruction: 0x013d0299
    15f8:	23020000 	movwcs	r0, #8192	; 0x2000
    15fc:	052a0304 	streq	r0, [sl, #-772]!	; 0x304
    1600:	9a020000 	bls	81608 <_start-0x3ff869f8>
    1604:	00013d02 	andeq	r3, r1, r2, lsl #26
    1608:	08230200 	stmdaeq	r3!, {r9}
    160c:	00053303 	andeq	r3, r5, r3, lsl #6
    1610:	029b0200 	addseq	r0, fp, #0
    1614:	0000013d 	andeq	r0, r0, sp, lsr r1
    1618:	030c2302 	movweq	r2, #49922	; 0xc302
    161c:	00000482 	andeq	r0, r0, r2, lsl #9
    1620:	3d029c02 	stccc	12, cr9, [r2, #-8]
    1624:	02000001 	andeq	r0, r0, #1
    1628:	07001023 	streq	r1, [r0, -r3, lsr #32]
    162c:	00000567 	andeq	r0, r0, r7, ror #10
    1630:	a0029d02 	andge	r9, r2, r2, lsl #26
    1634:	02000002 	andeq	r0, r0, #2
    1638:	02b50214 	adcseq	r0, r5, #1073741825	; 0x40000001
    163c:	00000356 	andeq	r0, r0, r6, asr r3
    1640:	0002b503 	andeq	fp, r2, r3, lsl #10
    1644:	02b60200 	adcseq	r0, r6, #0
    1648:	0000013d 	andeq	r0, r0, sp, lsr r1
    164c:	03002302 	movweq	r2, #770	; 0x302
    1650:	000003c2 	andeq	r0, r0, r2, asr #7
    1654:	3d02b702 	stccc	7, cr11, [r2, #-8]
    1658:	02000001 	andeq	r0, r0, #1
    165c:	cb030423 	blgt	c26f0 <_start-0x3ff45910>
    1660:	02000003 	andeq	r0, r0, #3
    1664:	013d02b8 			; <UNDEFINED> instruction: 0x013d02b8
    1668:	23020000 	movwcs	r0, #8192	; 0x2000
    166c:	03d40308 	bicseq	r0, r4, #536870912	; 0x20000000
    1670:	b9020000 	stmdblt	r2, {}	; <UNPREDICTABLE>
    1674:	00013d02 	andeq	r3, r1, r2, lsl #26
    1678:	0c230200 	sfmeq	f0, 4, [r3]
    167c:	0003dd03 	andeq	sp, r3, r3, lsl #26
    1680:	02ba0200 	adcseq	r0, sl, #0
    1684:	0000013d 	andeq	r0, r0, sp, lsr r1
    1688:	00102302 	andseq	r2, r0, r2, lsl #6
    168c:	00047807 	andeq	r7, r4, r7, lsl #16
    1690:	02bb0200 	adcseq	r0, fp, #0
    1694:	00000301 	andeq	r0, r0, r1, lsl #6
    1698:	f602a002 			; <UNDEFINED> instruction: 0xf602a002
    169c:	0005cc02 	andeq	ip, r5, r2, lsl #24
    16a0:	05440300 	strbeq	r0, [r4, #-768]	; 0x300
    16a4:	f7020000 			; <UNDEFINED> instruction: 0xf7020000
    16a8:	00013d02 	andeq	r3, r1, r2, lsl #26
    16ac:	00230200 	eoreq	r0, r3, r0, lsl #4
    16b0:	00055203 	andeq	r5, r5, r3, lsl #4
    16b4:	02f80200 	rscseq	r0, r8, #0
    16b8:	0000013d 	andeq	r0, r0, sp, lsr r1
    16bc:	03042302 	movweq	r2, #17154	; 0x4302
    16c0:	00000452 	andeq	r0, r0, r2, asr r4
    16c4:	3d02f902 	stccc	9, cr15, [r2, #-8]
    16c8:	02000001 	andeq	r0, r0, #1
    16cc:	6a030823 	bvs	c3760 <_start-0x3ff448a0>
    16d0:	02000004 	andeq	r0, r0, #4
    16d4:	013d02fa 			; <UNDEFINED> instruction: 0x013d02fa
    16d8:	23020000 	movwcs	r0, #8192	; 0x2000
    16dc:	0494030c 	ldreq	r0, [r4], #780	; 0x30c
    16e0:	fb020000 	blx	816ea <_start-0x3ff86916>
    16e4:	00013d02 	andeq	r3, r1, r2, lsl #26
    16e8:	10230200 	eorne	r0, r3, r0, lsl #4
    16ec:	00039503 	andeq	r9, r3, r3, lsl #10
    16f0:	02fc0200 	rscseq	r0, ip, #0
    16f4:	0000013d 	andeq	r0, r0, sp, lsr r1
    16f8:	03142302 	tsteq	r4, #134217728	; 0x8000000
    16fc:	00000513 	andeq	r0, r0, r3, lsl r5
    1700:	3d02fd02 	stccc	13, cr15, [r2, #-8]
    1704:	02000001 	andeq	r0, r0, #1
    1708:	7e031823 	cdpvc	8, 0, cr1, cr3, cr3, {1}
    170c:	02000003 	andeq	r0, r0, #3
    1710:	013d02fe 			; <UNDEFINED> instruction: 0x013d02fe
    1714:	23020000 	movwcs	r0, #8192	; 0x2000
    1718:	03a3031c 			; <UNDEFINED> instruction: 0x03a3031c
    171c:	ff020000 			; <UNDEFINED> instruction: 0xff020000
    1720:	00013d02 	andeq	r3, r1, r2, lsl #26
    1724:	20230200 	eorcs	r0, r3, r0, lsl #4
    1728:	0003ac03 	andeq	sl, r3, r3, lsl #24
    172c:	03000200 	movweq	r0, #512	; 0x200
    1730:	0000013d 	andeq	r0, r0, sp, lsr r1
    1734:	03242302 	teqeq	r4, #134217728	; 0x8000000
    1738:	0000031a 	andeq	r0, r0, sl, lsl r3
    173c:	3d030102 	stfccs	f0, [r3, #-8]
    1740:	02000001 	andeq	r0, r0, #1
    1744:	24032823 	strcs	r2, [r3], #-2083	; 0x823
    1748:	02000003 	andeq	r0, r0, #3
    174c:	013d0302 	teqeq	sp, r2, lsl #6
    1750:	23020000 	movwcs	r0, #8192	; 0x2000
    1754:	032e032c 	teqeq	lr, #-1342177280	; 0xb0000000
    1758:	03020000 	movweq	r0, #8192	; 0x2000
    175c:	00013d03 	andeq	r3, r1, r3, lsl #26
    1760:	30230200 	eorcc	r0, r3, r0, lsl #4
    1764:	00033803 	andeq	r3, r3, r3, lsl #16
    1768:	03040200 	movweq	r0, #16896	; 0x4200
    176c:	0000013d 	andeq	r0, r0, sp, lsr r1
    1770:	03342302 	teqeq	r4, #134217728	; 0x8000000
    1774:	00000342 	andeq	r0, r0, r2, asr #6
    1778:	3d030502 	cfstr32cc	mvfx0, [r3, #-8]
    177c:	02000001 	andeq	r0, r0, #1
    1780:	4c033823 	stcmi	8, cr3, [r3], {35}	; 0x23
    1784:	02000003 	andeq	r0, r0, #3
    1788:	013d0306 	teqeq	sp, r6, lsl #6
    178c:	23020000 	movwcs	r0, #8192	; 0x2000
    1790:	0356033c 	cmpeq	r6, #-268435456	; 0xf0000000
    1794:	07020000 	streq	r0, [r2, -r0]
    1798:	00013d03 	andeq	r3, r1, r3, lsl #26
    179c:	40230200 	eormi	r0, r3, r0, lsl #4
    17a0:	00036003 	andeq	r6, r3, r3
    17a4:	03080200 	movweq	r0, #33280	; 0x8200
    17a8:	0000013d 	andeq	r0, r0, sp, lsr r1
    17ac:	03442302 	movteq	r2, #17154	; 0x4302
    17b0:	0000036a 	andeq	r0, r0, sl, ror #6
    17b4:	3d030902 	stccc	9, cr0, [r3, #-8]
    17b8:	02000001 	andeq	r0, r0, #1
    17bc:	74034823 	strvc	r4, [r3], #-2083	; 0x823
    17c0:	02000003 	andeq	r0, r0, #3
    17c4:	013d030a 	teqeq	sp, sl, lsl #6
    17c8:	23020000 	movwcs	r0, #8192	; 0x2000
    17cc:	03f0034c 	mvnseq	r0, #805306369	; 0x30000001
    17d0:	0b020000 	bleq	817d8 <_start-0x3ff86828>
    17d4:	00013d03 	andeq	r3, r1, r3, lsl #26
    17d8:	50230200 	eorpl	r0, r3, r0, lsl #4
    17dc:	0003fa03 	andeq	pc, r3, r3, lsl #20
    17e0:	030c0200 	movweq	r0, #49664	; 0xc200
    17e4:	0000013d 	andeq	r0, r0, sp, lsr r1
    17e8:	03542302 	cmpeq	r4, #134217728	; 0x8000000
    17ec:	000003e6 	andeq	r0, r0, r6, ror #7
    17f0:	3d030d02 	stccc	13, cr0, [r3, #-8]
    17f4:	02000001 	andeq	r0, r0, #1
    17f8:	0c035823 	stceq	8, cr5, [r3], {35}	; 0x23
    17fc:	02000004 	andeq	r0, r0, #4
    1800:	013d030e 	teqeq	sp, lr, lsl #6
    1804:	23020000 	movwcs	r0, #8192	; 0x2000
    1808:	0416035c 	ldreq	r0, [r6], #-860	; 0x35c
    180c:	0f020000 	svceq	0x00020000
    1810:	00013d03 	andeq	r3, r1, r3, lsl #26
    1814:	60230200 	eorvs	r0, r3, r0, lsl #4
    1818:	00042003 	andeq	r2, r4, r3
    181c:	03100200 	tsteq	r0, #0
    1820:	0000013d 	andeq	r0, r0, sp, lsr r1
    1824:	03642302 	cmneq	r4, #134217728	; 0x8000000
    1828:	0000042a 	andeq	r0, r0, sl, lsr #8
    182c:	3d031102 	stfccs	f1, [r3, #-8]
    1830:	02000001 	andeq	r0, r0, #1
    1834:	34036823 	strcc	r6, [r3], #-2083	; 0x823
    1838:	02000004 	andeq	r0, r0, #4
    183c:	013d0312 	teqeq	sp, r2, lsl r3
    1840:	23020000 	movwcs	r0, #8192	; 0x2000
    1844:	043e036c 	ldrteq	r0, [lr], #-876	; 0x36c
    1848:	13020000 	movwne	r0, #8192	; 0x2000
    184c:	00013d03 	andeq	r3, r1, r3, lsl #26
    1850:	70230200 	eorvc	r0, r3, r0, lsl #4
    1854:	00044803 	andeq	r4, r4, r3, lsl #16
    1858:	03140200 	tsteq	r4, #0
    185c:	0000013d 	andeq	r0, r0, sp, lsr r1
    1860:	03742302 	cmneq	r4, #134217728	; 0x8000000
    1864:	000004ae 	andeq	r0, r0, lr, lsr #9
    1868:	3d031502 	cfstr32cc	mvfx1, [r3, #-8]
    186c:	02000001 	andeq	r0, r0, #1
    1870:	6c037823 	stcvs	8, cr7, [r3], {35}	; 0x23
    1874:	02000005 	andeq	r0, r0, #5
    1878:	013d0316 	teqeq	sp, r6, lsl r3
    187c:	23020000 	movwcs	r0, #8192	; 0x2000
    1880:	04bf037c 	ldrteq	r0, [pc], #892	; 1888 <_start-0x40006778>
    1884:	17020000 	strne	r0, [r2, -r0]
    1888:	00013d03 	andeq	r3, r1, r3, lsl #26
    188c:	80230300 	eorhi	r0, r3, r0, lsl #6
    1890:	04c90301 	strbeq	r0, [r9], #769	; 0x301
    1894:	18020000 	stmdane	r2, {}	; <UNPREDICTABLE>
    1898:	00013d03 	andeq	r3, r1, r3, lsl #26
    189c:	84230300 	strthi	r0, [r3], #-768	; 0x300
    18a0:	04d30301 	ldrbeq	r0, [r3], #769	; 0x301
    18a4:	19020000 	stmdbne	r2, {}	; <UNPREDICTABLE>
    18a8:	00013d03 	andeq	r3, r1, r3, lsl #26
    18ac:	88230300 	stmdahi	r3!, {r8, r9}
    18b0:	04dd0301 	ldrbeq	r0, [sp], #769	; 0x301
    18b4:	1a020000 	bne	818bc <_start-0x3ff86744>
    18b8:	00013d03 	andeq	r3, r1, r3, lsl #26
    18bc:	8c230300 	stchi	3, cr0, [r3]
    18c0:	04e70301 	strbteq	r0, [r7], #769	; 0x301
    18c4:	1b020000 	blne	818cc <_start-0x3ff86734>
    18c8:	00013d03 	andeq	r3, r1, r3, lsl #26
    18cc:	90230300 	eorls	r0, r3, r0, lsl #6
    18d0:	04f10301 	ldrbteq	r0, [r1], #769	; 0x301
    18d4:	1c020000 	stcne	0, cr0, [r2], {0}
    18d8:	00013d03 	andeq	r3, r1, r3, lsl #26
    18dc:	94230300 	strtls	r0, [r3], #-768	; 0x300
    18e0:	03100301 	tsteq	r0, #67108864	; 0x4000000
    18e4:	1d020000 	stcne	0, cr0, [r2]
    18e8:	00013d03 	andeq	r3, r1, r3, lsl #26
    18ec:	98230300 	stmdals	r3!, {r8, r9}
    18f0:	05090301 	streq	r0, [r9, #-769]	; 0x301
    18f4:	1e020000 	cdpne	0, 0, cr0, cr2, cr0, {0}
    18f8:	00013d03 	andeq	r3, r1, r3, lsl #26
    18fc:	9c230300 	stcls	3, cr0, [r3]
    1900:	7d070001 	stcvc	0, cr0, [r7, #-4]
    1904:	02000004 	andeq	r0, r0, #4
    1908:	0362031f 	cmneq	r2, #2080374784	; 0x7c000000
    190c:	04040000 	streq	r0, [r4]
    1910:	00007907 	andeq	r7, r0, r7, lsl #18
    1914:	da010800 	ble	4391c <_start-0x3ffc46e4>
    1918:	01000005 	tsteq	r0, r5
    191c:	009e080c 	addseq	r0, lr, ip, lsl #16
    1920:	009f6440 	addseq	r6, pc, r0, asr #8
    1924:	00049040 	andeq	r9, r4, r0, asr #32
    1928:	00064b00 	andeq	r4, r6, r0, lsl #22
    192c:	9e880900 	cdpls	9, 8, cr0, cr8, cr0, {0}
    1930:	9e9c4000 	cdpls	0, 9, cr4, cr12, cr0, {0}
    1934:	06144000 	ldreq	r4, [r4], -r0
    1938:	010a0000 	mrseq	r0, (UNDEF: 10)
    193c:	0000013d 	andeq	r0, r0, sp, lsr r1
    1940:	064b1101 	strbeq	r1, [fp], -r1, lsl #2
    1944:	0b010000 	bleq	4194c <_start-0x3ffc66b4>
    1948:	b4090000 	strlt	r0, [r9]
    194c:	c840009e 	stmdagt	r0, {r1, r2, r3, r4, r7}^
    1950:	3140009e 	swpbcc	r0, lr, [r0]	; <UNPREDICTABLE>
    1954:	0a000006 	beq	1974 <_start-0x4000668c>
    1958:	00013d01 	andeq	r3, r1, r1, lsl #26
    195c:	4b110100 	blmi	441d64 <_start-0x3fbc629c>
    1960:	01000006 	tsteq	r0, r6
    1964:	0c00000b 	stceq	0, cr0, [r0], {11}
    1968:	40009ee0 	andmi	r9, r0, r0, ror #29
    196c:	40009ef4 	strdmi	r9, [r0], -r4
    1970:	013d010a 	teqeq	sp, sl, lsl #2
    1974:	11010000 	mrsne	r0, (UNDEF: 1)
    1978:	0000064b 	andeq	r0, r0, fp, asr #12
    197c:	00000b01 	andeq	r0, r0, r1, lsl #22
    1980:	05040d00 	streq	r0, [r4, #-3328]	; 0xd00
    1984:	00746e69 	rsbseq	r6, r4, r9, ror #28
    1988:	05cd010e 	strbeq	r0, [sp, #270]	; 0x10e
    198c:	2d010000 	stccs	0, cr0, [r1]
    1990:	009f6401 	addseq	r6, pc, r1, lsl #8
    1994:	009fec40 	addseq	lr, pc, r0, asr #24
    1998:	0004bc40 	andeq	fp, r4, r0, asr #24
    199c:	00068700 	andeq	r8, r6, r0, lsl #14
    19a0:	736d0f00 	cmnvc	sp, #0
    19a4:	4b2d0100 	blmi	b41dac <_start-0x3f4c6254>
    19a8:	02000006 	andeq	r0, r0, #6
    19ac:	a3107891 	tstge	r0, #9502720	; 0x910000
    19b0:	01000005 	tsteq	r0, r5
    19b4:	00064b2d 	andeq	r4, r6, sp, lsr #22
    19b8:	74910200 	ldrvc	r0, [r1], #512	; 0x200
    19bc:	ed011100 	stfs	f1, [r1]
    19c0:	01000005 	tsteq	r0, r5
    19c4:	009fec36 	addseq	lr, pc, r6, lsr ip	; <UNPREDICTABLE>
    19c8:	00a0c440 	adceq	ip, r0, r0, asr #8
    19cc:	0004e840 	andeq	lr, r4, r0, asr #16
    19d0:	06b21200 	ldrteq	r1, [r2], r0, lsl #4
    19d4:	06ab0000 	strteq	r0, [fp], r0
    19d8:	d8130000 	ldmdale	r3, {}	; <UNPREDICTABLE>
    19dc:	9f000005 	svcls	0x00000005
    19e0:	06b21400 	ldrteq	r1, [r2], r0, lsl #8
    19e4:	000b0000 	andeq	r0, fp, r0
    19e8:	06ab0415 	ssateq	r0, #12, r5, lsl #8
    19ec:	f1160000 			; <UNDEFINED> instruction: 0xf1160000
    19f0:	01000002 	tsteq	r0, r2
    19f4:	00069b07 	andeq	r9, r6, r7, lsl #22
    19f8:	16010100 	strne	r0, [r1], -r0, lsl #2
    19fc:	000005c2 	andeq	r0, r0, r2, asr #11
    1a00:	064b0901 	strbeq	r0, [fp], -r1, lsl #18
    1a04:	01010000 	mrseq	r0, (UNDEF: 1)
    1a08:	0002f116 	andeq	pc, r2, r6, lsl r1	; <UNPREDICTABLE>
    1a0c:	9b070100 	blls	1c1e14 <_start-0x3fe461ec>
    1a10:	01000006 	tsteq	r0, r6
    1a14:	05c21701 	strbeq	r1, [r2, #1793]	; 0x701
    1a18:	09010000 	stmdbeq	r1, {}	; <UNPREDICTABLE>
    1a1c:	0000064b 	andeq	r0, r0, fp, asr #12
    1a20:	00030501 	andeq	r0, r3, r1, lsl #10
    1a24:	004000ae 	subeq	r0, r0, lr, lsr #1

Disassembly of section .debug_abbrev:

00000000 <.debug_abbrev>:
   0:	10001101 	andne	r1, r0, r1, lsl #2
   4:	12011106 	andne	r1, r1, #-2147483647	; 0x80000001
   8:	1b080301 	blne	200c14 <_start-0x3fe073ec>
   c:	13082508 	movwne	r2, #34056	; 0x8508
  10:	00000005 	andeq	r0, r0, r5
  14:	10001101 	andne	r1, r0, r1, lsl #2
  18:	12011106 	andne	r1, r1, #-2147483647	; 0x80000001
  1c:	1b080301 	blne	200c28 <_start-0x3fe073d8>
  20:	13082508 	movwne	r2, #34056	; 0x8508
  24:	00000005 	andeq	r0, r0, r5
  28:	10001101 	andne	r1, r0, r1, lsl #2
  2c:	12011106 	andne	r1, r1, #-2147483647	; 0x80000001
  30:	1b080301 	blne	200c3c <_start-0x3fe073c4>
  34:	13082508 	movwne	r2, #34056	; 0x8508
  38:	00000005 	andeq	r0, r0, r5
  3c:	25011101 	strcs	r1, [r1, #-257]	; 0x101
  40:	030b130e 	movweq	r1, #45838	; 0xb30e
  44:	110e1b0e 	tstne	lr, lr, lsl #22
  48:	10011201 	andne	r1, r1, r1, lsl #4
  4c:	02000006 	andeq	r0, r0, #6
  50:	0e030016 	mcreq	0, 0, r0, cr3, cr6, {0}
  54:	0b3b0b3a 	bleq	ec2d44 <_start-0x3f1452bc>
  58:	00001349 	andeq	r1, r0, r9, asr #6
  5c:	0b000f03 	bleq	3c70 <_start-0x40004390>
  60:	000e030b 	andeq	r0, lr, fp, lsl #6
  64:	012e0400 	teqeq	lr, r0, lsl #8
  68:	0b3a0e03 	bleq	e8387c <_start-0x3f184784>
  6c:	0c270b3b 	stceq	11, cr0, [r7], #-236	; 0xffffff14
  70:	01111349 	tsteq	r1, r9, asr #6
  74:	06400112 			; <UNDEFINED> instruction: 0x06400112
  78:	00001301 	andeq	r1, r0, r1, lsl #6
  7c:	03000505 	movweq	r0, #1285	; 0x505
  80:	3b0b3a08 	blcc	2ce8a8 <_start-0x3fd39758>
  84:	0213490b 	andseq	r4, r3, #180224	; 0x2c000
  88:	0600000a 	streq	r0, [r0], -sl
  8c:	0b0b0024 	bleq	2c0124 <_start-0x3fd47edc>
  90:	0e030b3e 	vmoveq.16	d3[0], r0
  94:	2e070000 	cdpcs	0, 0, cr0, cr7, cr0, {0}
  98:	030c3f01 	movweq	r3, #52993	; 0xcf01
  9c:	3b0b3a0e 	blcc	2ce8dc <_start-0x3fd39724>
  a0:	490c270b 	stmdbmi	ip, {r0, r1, r3, r8, r9, sl, sp}
  a4:	12011113 	andne	r1, r1, #-1073741820	; 0xc0000004
  a8:	01064001 	tsteq	r6, r1
  ac:	08000013 	stmdaeq	r0, {r0, r1, r4}
  b0:	0e030005 	cdpeq	0, 0, cr0, cr3, cr5, {0}
  b4:	0b3b0b3a 	bleq	ec2da4 <_start-0x3f14525c>
  b8:	0a021349 	beq	84de4 <_start-0x3ff8321c>
  bc:	34090000 	strcc	r0, [r9]
  c0:	3a0e0300 	bcc	380cc8 <_start-0x3fc87338>
  c4:	490b3b0b 	stmdbmi	fp, {r0, r1, r3, r8, r9, fp, ip, sp}
  c8:	000a0213 	andeq	r0, sl, r3, lsl r2
  cc:	000f0a00 	andeq	r0, pc, r0, lsl #20
  d0:	13490b0b 	movtne	r0, #39691	; 0x9b0b
  d4:	260b0000 	strcs	r0, [fp], -r0
  d8:	00134900 	andseq	r4, r3, r0, lsl #18
  dc:	00340c00 	eorseq	r0, r4, r0, lsl #24
  e0:	0b3a0803 	bleq	e820f4 <_start-0x3f185f0c>
  e4:	13490b3b 	movtne	r0, #39739	; 0x9b3b
  e8:	00000a02 	andeq	r0, r0, r2, lsl #20
  ec:	0b00240d 	bleq	9128 <_start-0x3fffeed8>
  f0:	030b3e0b 	movweq	r3, #48651	; 0xbe0b
  f4:	0e000008 	cdpeq	0, 0, cr0, cr0, cr8, {0}
  f8:	0111010b 	tsteq	r1, fp, lsl #2
  fc:	00000112 	andeq	r0, r0, r2, lsl r1
 100:	4901010f 	stmdbmi	r1, {r0, r1, r2, r3, r8}
 104:	00130113 	andseq	r0, r3, r3, lsl r1
 108:	00211000 	eoreq	r1, r1, r0
 10c:	0b2f1349 	bleq	bc4e38 <_start-0x3f4431c8>
 110:	0a110000 	beq	440118 <_start-0x3fbc7ee8>
 114:	3a0e0300 	bcc	380d1c <_start-0x3fc872e4>
 118:	110b3b0b 	tstne	fp, fp, lsl #22
 11c:	12000001 	andne	r0, r0, #1
 120:	0111010b 	tsteq	r1, fp, lsl #2
 124:	13010112 	movwne	r0, #4370	; 0x1112
 128:	34130000 	ldrcc	r0, [r3]
 12c:	3a080300 	bcc	200d34 <_start-0x3fe072cc>
 130:	49053b0b 	stmdbmi	r5, {r0, r1, r3, r8, r9, fp, ip, sp}
 134:	000a0213 	andeq	r0, sl, r3, lsl r2
 138:	012e1400 	teqeq	lr, r0, lsl #8
 13c:	0e030c3f 	mcreq	12, 0, r0, cr3, cr15, {1}
 140:	053b0b3a 	ldreq	r0, [fp, #-2874]!	; 0xb3a
 144:	13490c27 	movtne	r0, #39975	; 0x9c27
 148:	01120111 	tsteq	r2, r1, lsl r1
 14c:	13010640 	movwne	r0, #5696	; 0x1640
 150:	05150000 	ldreq	r0, [r5]
 154:	3a080300 	bcc	200d5c <_start-0x3fe072a4>
 158:	49053b0b 	stmdbmi	r5, {r0, r1, r3, r8, r9, fp, ip, sp}
 15c:	000a0213 	andeq	r0, sl, r3, lsl r2
 160:	00181600 	andseq	r1, r8, r0, lsl #12
 164:	34170000 	ldrcc	r0, [r7]
 168:	3a0e0300 	bcc	380d70 <_start-0x3fc87290>
 16c:	49053b0b 	stmdbmi	r5, {r0, r1, r3, r8, r9, fp, ip, sp}
 170:	000a0213 	andeq	r0, sl, r3, lsl r2
 174:	012e1800 	teqeq	lr, r0, lsl #16
 178:	0e030c3f 	mcreq	12, 0, r0, cr3, cr15, {1}
 17c:	053b0b3a 	ldreq	r0, [fp, #-2874]!	; 0xb3a
 180:	01110c27 	tsteq	r1, r7, lsr #24
 184:	06400112 			; <UNDEFINED> instruction: 0x06400112
 188:	00001301 	andeq	r1, r0, r1, lsl #6
 18c:	03003419 	movweq	r3, #1049	; 0x419
 190:	3b0b3a0e 	blcc	2ce9d0 <_start-0x3fd39630>
 194:	3f13490b 	svccc	0x0013490b
 198:	000c3c0c 	andeq	r3, ip, ip, lsl #24
 19c:	00341a00 	eorseq	r1, r4, r0, lsl #20
 1a0:	0b3a0e03 	bleq	e839b4 <_start-0x3f18464c>
 1a4:	13490b3b 	movtne	r0, #39739	; 0x9b3b
 1a8:	0a020c3f 	beq	832ac <_start-0x3ff84d54>
 1ac:	01000000 	mrseq	r0, (UNDEF: 0)
 1b0:	0e250111 	mcreq	1, 1, r0, cr5, cr1, {0}
 1b4:	0e030b13 	vmoveq.32	d3[0], r0
 1b8:	01110e1b 	tsteq	r1, fp, lsl lr
 1bc:	06100112 			; <UNDEFINED> instruction: 0x06100112
 1c0:	24020000 	strcs	r0, [r2]
 1c4:	3e0b0b00 	vmlacc.f64	d0, d11, d0
 1c8:	000e030b 	andeq	r0, lr, fp, lsl #6
 1cc:	01130300 	tsteq	r3, r0, lsl #6
 1d0:	0b3a0b0b 	bleq	e82e04 <_start-0x3f1851fc>
 1d4:	1301053b 	movwne	r0, #5435	; 0x153b
 1d8:	0d040000 	stceq	0, cr0, [r4]
 1dc:	3a080300 	bcc	200de4 <_start-0x3fe0721c>
 1e0:	49053b0b 	stmdbmi	r5, {r0, r1, r3, r8, r9, fp, ip, sp}
 1e4:	000a3813 	andeq	r3, sl, r3, lsl r8
 1e8:	000d0500 	andeq	r0, sp, r0, lsl #10
 1ec:	0b3a0e03 	bleq	e83a00 <_start-0x3f184600>
 1f0:	1349053b 	movtne	r0, #38203	; 0x953b
 1f4:	00000a38 	andeq	r0, r0, r8, lsr sl
 1f8:	03001606 	movweq	r1, #1542	; 0x606
 1fc:	3b0b3a0e 	blcc	2cea3c <_start-0x3fd395c4>
 200:	00134905 	andseq	r4, r3, r5, lsl #18
 204:	002e0700 	eoreq	r0, lr, r0, lsl #14
 208:	0e030c3f 	mcreq	12, 0, r0, cr3, cr15, {1}
 20c:	0b3b0b3a 	bleq	ec2efc <_start-0x3f145104>
 210:	01120111 	tsteq	r2, r1, lsl r1
 214:	00000640 	andeq	r0, r0, r0, asr #12
 218:	3f012e08 	svccc	0x00012e08
 21c:	3a0e030c 	bcc	380e54 <_start-0x3fc871ac>
 220:	270b3b0b 	strcs	r3, [fp, -fp, lsl #22]
 224:	1201110c 	andne	r1, r1, #3
 228:	01064001 	tsteq	r6, r1
 22c:	09000013 	stmdbeq	r0, {r0, r1, r4}
 230:	0e030005 	cdpeq	0, 0, cr0, cr3, cr5, {0}
 234:	0b3b0b3a 	bleq	ec2f24 <_start-0x3f1450dc>
 238:	0a021349 	beq	84f64 <_start-0x3ff8309c>
 23c:	260a0000 	strcs	r0, [sl], -r0
 240:	00134900 	andseq	r4, r3, r0, lsl #18
 244:	000f0b00 	andeq	r0, pc, r0, lsl #22
 248:	13490b0b 	movtne	r0, #39691	; 0x9b0b
 24c:	01000000 	mrseq	r0, (UNDEF: 0)
 250:	0e250111 	mcreq	1, 1, r0, cr5, cr1, {0}
 254:	0e030b13 	vmoveq.32	d3[0], r0
 258:	01110e1b 	tsteq	r1, fp, lsl lr
 25c:	06100112 			; <UNDEFINED> instruction: 0x06100112
 260:	13020000 	movwne	r0, #8192	; 0x2000
 264:	3a0b0b01 	bcc	2c2e70 <_start-0x3fd45190>
 268:	01053b0b 	tsteq	r5, fp, lsl #22
 26c:	03000013 	movweq	r0, #19
 270:	0e03000d 	cdpeq	0, 0, cr0, cr3, cr13, {0}
 274:	053b0b3a 	ldreq	r0, [fp, #-2874]!	; 0xb3a
 278:	0a381349 	beq	e04fa4 <_start-0x3f20305c>
 27c:	24040000 	strcs	r0, [r4]
 280:	3e0b0b00 	vmlacc.f64	d0, d11, d0
 284:	000e030b 	andeq	r0, lr, fp, lsl #6
 288:	00160500 	andseq	r0, r6, r0, lsl #10
 28c:	0b3a0803 	bleq	e822a0 <_start-0x3f185d60>
 290:	1349053b 	movtne	r0, #38203	; 0x953b
 294:	0d060000 	stceq	0, cr0, [r6]
 298:	3a080300 	bcc	200ea0 <_start-0x3fe07160>
 29c:	49053b0b 	stmdbmi	r5, {r0, r1, r3, r8, r9, fp, ip, sp}
 2a0:	000a3813 	andeq	r3, sl, r3, lsl r8
 2a4:	00160700 	andseq	r0, r6, r0, lsl #14
 2a8:	0b3a0e03 	bleq	e83abc <_start-0x3f184544>
 2ac:	1349053b 	movtne	r0, #38203	; 0x953b
 2b0:	01080000 	mrseq	r0, (UNDEF: 8)
 2b4:	01134901 	tsteq	r3, r1, lsl #18
 2b8:	09000013 	stmdbeq	r0, {r0, r1, r4}
 2bc:	13490021 	movtne	r0, #36897	; 0x9021
 2c0:	00000b2f 	andeq	r0, r0, pc, lsr #22
 2c4:	3f002e0a 	svccc	0x00002e0a
 2c8:	3a0e030c 	bcc	380f00 <_start-0x3fc87100>
 2cc:	110b3b0b 	tstne	fp, fp, lsl #22
 2d0:	40011201 	andmi	r1, r1, r1, lsl #4
 2d4:	0b000006 	bleq	2f4 <_start-0x40007d0c>
 2d8:	0c3f012e 	ldfeqs	f0, [pc], #-184	; 228 <_start-0x40007dd8>
 2dc:	0b3a0e03 	bleq	e83af0 <_start-0x3f184510>
 2e0:	0c270b3b 	stceq	11, cr0, [r7], #-236	; 0xffffff14
 2e4:	01120111 	tsteq	r2, r1, lsl r1
 2e8:	13010640 	movwne	r0, #5696	; 0x1640
 2ec:	050c0000 	streq	r0, [ip]
 2f0:	3a080300 	bcc	200ef8 <_start-0x3fe07108>
 2f4:	490b3b0b 	stmdbmi	fp, {r0, r1, r3, r8, r9, fp, ip, sp}
 2f8:	000a0213 	andeq	r0, sl, r3, lsl r2
 2fc:	00340d00 	eorseq	r0, r4, r0, lsl #26
 300:	0b3a0e03 	bleq	e83b14 <_start-0x3f1844ec>
 304:	13490b3b 	movtne	r0, #39739	; 0x9b3b
 308:	00000a02 	andeq	r0, r0, r2, lsl #20
 30c:	0b00240e 	bleq	934c <_start-0x3fffecb4>
 310:	030b3e0b 	movweq	r3, #48651	; 0xbe0b
 314:	00000008 	andeq	r0, r0, r8
 318:	25011101 	strcs	r1, [r1, #-257]	; 0x101
 31c:	030b130e 	movweq	r1, #45838	; 0xb30e
 320:	110e1b0e 	tstne	lr, lr, lsl #22
 324:	10011201 	andne	r1, r1, r1, lsl #4
 328:	02000006 	andeq	r0, r0, #6
 32c:	0b0b0024 	bleq	2c03c4 <_start-0x3fd47c3c>
 330:	0e030b3e 	vmoveq.16	d3[0], r0
 334:	13030000 	movwne	r0, #12288	; 0x3000
 338:	3a0b0b01 	bcc	2c2f44 <_start-0x3fd450bc>
 33c:	01053b0b 	tsteq	r5, fp, lsl #22
 340:	04000013 	streq	r0, [r0], #-19
 344:	0803000d 	stmdaeq	r3, {r0, r2, r3}
 348:	053b0b3a 	ldreq	r0, [fp, #-2874]!	; 0xb3a
 34c:	0a381349 	beq	e05078 <_start-0x3f202f88>
 350:	16050000 	strne	r0, [r5], -r0
 354:	3a0e0300 	bcc	380f5c <_start-0x3fc870a4>
 358:	49053b0b 	stmdbmi	r5, {r0, r1, r3, r8, r9, fp, ip, sp}
 35c:	06000013 			; <UNDEFINED> instruction: 0x06000013
 360:	0e03000d 	cdpeq	0, 0, cr0, cr3, cr13, {0}
 364:	053b0b3a 	ldreq	r0, [fp, #-2874]!	; 0xb3a
 368:	0a381349 	beq	e05094 <_start-0x3f202f6c>
 36c:	2e070000 	cdpcs	0, 0, cr0, cr7, cr0, {0}
 370:	030c3f00 	movweq	r3, #52992	; 0xcf00
 374:	3b0b3a0e 	blcc	2cebb4 <_start-0x3fd3944c>
 378:	1201110b 	andne	r1, r1, #-1073741822	; 0xc0000002
 37c:	00064001 	andeq	r4, r6, r1
 380:	01010800 	tsteq	r1, r0, lsl #16
 384:	13011349 	movwne	r1, #4937	; 0x1349
 388:	21090000 	mrscs	r0, (UNDEF: 9)
 38c:	2f134900 	svccs	0x00134900
 390:	0a00000b 	beq	3c4 <_start-0x40007c3c>
 394:	13010115 	movwne	r0, #4373	; 0x1115
 398:	180b0000 	stmdane	fp, {}	; <UNPREDICTABLE>
 39c:	0c000000 	stceq	0, cr0, [r0], {0}
 3a0:	0b0b000f 	bleq	2c03e4 <_start-0x3fd47c1c>
 3a4:	00001349 	andeq	r1, r0, r9, asr #6
 3a8:	0300340d 	movweq	r3, #1037	; 0x40d
 3ac:	3b0b3a0e 	blcc	2cebec <_start-0x3fd39414>
 3b0:	3f13490b 	svccc	0x0013490b
 3b4:	000c3c0c 	andeq	r3, ip, ip, lsl #24
 3b8:	11010000 	mrsne	r0, (UNDEF: 1)
 3bc:	130e2501 	movwne	r2, #58625	; 0xe501
 3c0:	1b0e030b 	blne	380ff4 <_start-0x3fc8700c>
 3c4:	1201110e 	andne	r1, r1, #-2147483645	; 0x80000003
 3c8:	00061001 	andeq	r1, r6, r1
 3cc:	00240200 	eoreq	r0, r4, r0, lsl #4
 3d0:	0b3e0b0b 	bleq	f83004 <_start-0x3f084ffc>
 3d4:	00000e03 	andeq	r0, r0, r3, lsl #28
 3d8:	0b011303 	bleq	44fec <_start-0x3ffc3014>
 3dc:	3b0b3a0b 	blcc	2cec10 <_start-0x3fd393f0>
 3e0:	00130105 	andseq	r0, r3, r5, lsl #2
 3e4:	000d0400 	andeq	r0, sp, r0, lsl #8
 3e8:	0b3a0803 	bleq	e823fc <_start-0x3f185c04>
 3ec:	1349053b 	movtne	r0, #38203	; 0x953b
 3f0:	00000a38 	andeq	r0, r0, r8, lsr sl
 3f4:	03000d05 	movweq	r0, #3333	; 0xd05
 3f8:	3b0b3a0e 	blcc	2cec38 <_start-0x3fd393c8>
 3fc:	38134905 	ldmdacc	r3, {r0, r2, r8, fp, lr}
 400:	0600000a 	streq	r0, [r0], -sl
 404:	0e030016 	mcreq	0, 0, r0, cr3, cr6, {0}
 408:	053b0b3a 	ldreq	r0, [fp, #-2874]!	; 0xb3a
 40c:	00001349 	andeq	r1, r0, r9, asr #6
 410:	3f012e07 	svccc	0x00012e07
 414:	3a0e030c 	bcc	38104c <_start-0x3fc86fb4>
 418:	270b3b0b 	strcs	r3, [fp, -fp, lsl #22]
 41c:	1201110c 	andne	r1, r1, #3
 420:	01064001 	tsteq	r6, r1
 424:	08000013 	stmdaeq	r0, {r0, r1, r4}
 428:	08030005 	stmdaeq	r3, {r0, r2}
 42c:	0b3b0b3a 	bleq	ec311c <_start-0x3f144ee4>
 430:	0a021349 	beq	8515c <_start-0x3ff82ea4>
 434:	34090000 	strcc	r0, [r9]
 438:	3a080300 	bcc	201040 <_start-0x3fe06fc0>
 43c:	490b3b0b 	stmdbmi	fp, {r0, r1, r3, r8, r9, fp, ip, sp}
 440:	000a0213 	andeq	r0, sl, r3, lsl r2
 444:	00240a00 	eoreq	r0, r4, r0, lsl #20
 448:	0b3e0b0b 	bleq	f8307c <_start-0x3f084f84>
 44c:	00000803 	andeq	r0, r0, r3, lsl #16
 450:	0300340b 	movweq	r3, #1035	; 0x40b
 454:	3b0b3a0e 	blcc	2cec94 <_start-0x3fd3936c>
 458:	0213490b 	andseq	r4, r3, #180224	; 0x2c000
 45c:	0c00000a 	stceq	0, cr0, [r0], {10}
 460:	0c3f012e 	ldfeqs	f0, [pc], #-184	; 3b0 <_start-0x40007c50>
 464:	0b3a0e03 	bleq	e83c78 <_start-0x3f184388>
 468:	13490b3b 	movtne	r0, #39739	; 0x9b3b
 46c:	00000c3c 	andeq	r0, r0, ip, lsr ip
 470:	0000180d 	andeq	r1, r0, sp, lsl #16
 474:	012e0e00 	teqeq	lr, r0, lsl #28
 478:	0e030c3f 	mcreq	12, 0, r0, cr3, cr15, {1}
 47c:	0b3b0b3a 	bleq	ec316c <_start-0x3f144e94>
 480:	13490c27 	movtne	r0, #39975	; 0x9c27
 484:	01120111 	tsteq	r2, r1, lsl r1
 488:	13010640 	movwne	r0, #5696	; 0x1640
 48c:	2e0f0000 	cdpcs	0, 0, cr0, cr15, cr0, {0}
 490:	030c3f01 	movweq	r3, #52993	; 0xcf01
 494:	3b0b3a0e 	blcc	2cecd4 <_start-0x3fd3932c>
 498:	1201110b 	andne	r1, r1, #-1073741822	; 0xc0000002
 49c:	01064001 	tsteq	r6, r1
 4a0:	10000013 	andne	r0, r0, r3, lsl r0
 4a4:	13490101 	movtne	r0, #37121	; 0x9101
 4a8:	00001301 	andeq	r1, r0, r1, lsl #6
 4ac:	49002111 	stmdbmi	r0, {r0, r4, r8, sp}
 4b0:	000b2f13 	andeq	r2, fp, r3, lsl pc
 4b4:	00341200 	eorseq	r1, r4, r0, lsl #4
 4b8:	0b3a0803 	bleq	e824cc <_start-0x3f185b34>
 4bc:	13490b3b 	movtne	r0, #39739	; 0x9b3b
 4c0:	0c3c0c3f 	ldceq	12, cr0, [ip], #-252	; 0xffffff04
 4c4:	26130000 	ldrcs	r0, [r3], -r0
 4c8:	00134900 	andseq	r4, r3, r0, lsl #18
 4cc:	01151400 	tsteq	r5, r0, lsl #8
 4d0:	00001301 	andeq	r1, r0, r1, lsl #6
 4d4:	0b000f15 	bleq	4130 <_start-0x40003ed0>
 4d8:	0013490b 	andseq	r4, r3, fp, lsl #18
 4dc:	00341600 	eorseq	r1, r4, r0, lsl #12
 4e0:	0b3a0e03 	bleq	e83cf4 <_start-0x3f18430c>
 4e4:	13490b3b 	movtne	r0, #39739	; 0x9b3b
 4e8:	0c3c0c3f 	ldceq	12, cr0, [ip], #-252	; 0xffffff04
 4ec:	34170000 	ldrcc	r0, [r7]
 4f0:	3a080300 	bcc	2010f8 <_start-0x3fe06f08>
 4f4:	490b3b0b 	stmdbmi	fp, {r0, r1, r3, r8, r9, fp, ip, sp}
 4f8:	020c3f13 	andeq	r3, ip, #76	; 0x4c
 4fc:	1800000a 	stmdane	r0, {r1, r3}
 500:	0e030034 	mcreq	0, 0, r0, cr3, cr4, {1}
 504:	0b3b0b3a 	bleq	ec31f4 <_start-0x3f144e0c>
 508:	0c3f1349 	ldceq	3, cr1, [pc], #-292	; 3ec <_start-0x40007c14>
 50c:	00000a02 	andeq	r0, r0, r2, lsl #20
 510:	01110100 	tsteq	r1, r0, lsl #2
 514:	0b130e25 	bleq	4c3db0 <_start-0x3fb44250>
 518:	0e1b0e03 	cdpeq	14, 1, cr0, cr11, cr3, {0}
 51c:	01120111 	tsteq	r2, r1, lsl r1
 520:	00000610 	andeq	r0, r0, r0, lsl r6
 524:	0b011302 	bleq	45134 <_start-0x3ffc2ecc>
 528:	3b0b3a0b 	blcc	2ced5c <_start-0x3fd392a4>
 52c:	00130105 	andseq	r0, r3, r5, lsl #2
 530:	000d0300 	andeq	r0, sp, r0, lsl #6
 534:	0b3a0e03 	bleq	e83d48 <_start-0x3f1842b8>
 538:	1349053b 	movtne	r0, #38203	; 0x953b
 53c:	00000a38 	andeq	r0, r0, r8, lsr sl
 540:	0b002404 	bleq	9558 <_start-0x3fffeaa8>
 544:	030b3e0b 	movweq	r3, #48651	; 0xbe0b
 548:	0500000e 	streq	r0, [r0, #-14]
 54c:	08030016 	stmdaeq	r3, {r1, r2, r4}
 550:	053b0b3a 	ldreq	r0, [fp, #-2874]!	; 0xb3a
 554:	00001349 	andeq	r1, r0, r9, asr #6
 558:	03000d06 	movweq	r0, #3334	; 0xd06
 55c:	3b0b3a08 	blcc	2ced84 <_start-0x3fd3927c>
 560:	38134905 	ldmdacc	r3, {r0, r2, r8, fp, lr}
 564:	0700000a 	streq	r0, [r0, -sl]
 568:	0e030016 	mcreq	0, 0, r0, cr3, cr6, {0}
 56c:	053b0b3a 	ldreq	r0, [fp, #-2874]!	; 0xb3a
 570:	00001349 	andeq	r1, r0, r9, asr #6
 574:	3f012e08 	svccc	0x00012e08
 578:	3a0e030c 	bcc	3811b0 <_start-0x3fc86e50>
 57c:	110b3b0b 	tstne	fp, fp, lsl #22
 580:	40011201 	andmi	r1, r1, r1, lsl #4
 584:	00130106 	andseq	r0, r3, r6, lsl #2
 588:	010b0900 	tsteq	fp, r0, lsl #18
 58c:	01120111 	tsteq	r2, r1, lsl r1
 590:	00001301 	andeq	r1, r0, r1, lsl #6
 594:	3f012e0a 	svccc	0x00012e0a
 598:	3a0e030c 	bcc	3811d0 <_start-0x3fc86e30>
 59c:	490b3b0b 	stmdbmi	fp, {r0, r1, r3, r8, r9, fp, ip, sp}
 5a0:	000c3c13 	andeq	r3, ip, r3, lsl ip
 5a4:	00180b00 	andseq	r0, r8, r0, lsl #22
 5a8:	0b0c0000 	bleq	3005b0 <_start-0x3fd07a50>
 5ac:	12011101 	andne	r1, r1, #1073741824	; 0x40000000
 5b0:	0d000001 	stceq	0, cr0, [r0, #-4]
 5b4:	0b0b0024 	bleq	2c064c <_start-0x3fd479b4>
 5b8:	08030b3e 	stmdaeq	r3, {r1, r2, r3, r4, r5, r8, r9, fp}
 5bc:	2e0e0000 	cdpcs	0, 0, cr0, cr14, cr0, {0}
 5c0:	030c3f01 	movweq	r3, #52993	; 0xcf01
 5c4:	3b0b3a0e 	blcc	2cee04 <_start-0x3fd391fc>
 5c8:	110c270b 	tstne	ip, fp, lsl #14
 5cc:	40011201 	andmi	r1, r1, r1, lsl #4
 5d0:	00130106 	andseq	r0, r3, r6, lsl #2
 5d4:	00050f00 	andeq	r0, r5, r0, lsl #30
 5d8:	0b3a0803 	bleq	e825ec <_start-0x3f185a14>
 5dc:	13490b3b 	movtne	r0, #39739	; 0x9b3b
 5e0:	00000a02 	andeq	r0, r0, r2, lsl #20
 5e4:	03000510 	movweq	r0, #1296	; 0x510
 5e8:	3b0b3a0e 	blcc	2cee28 <_start-0x3fd391d8>
 5ec:	0213490b 	andseq	r4, r3, #180224	; 0x2c000
 5f0:	1100000a 	tstne	r0, sl
 5f4:	0c3f002e 	ldceq	0, cr0, [pc], #-184	; 544 <_start-0x40007abc>
 5f8:	0b3a0e03 	bleq	e83e0c <_start-0x3f1841f4>
 5fc:	01110b3b 	tsteq	r1, fp, lsr fp
 600:	06400112 			; <UNDEFINED> instruction: 0x06400112
 604:	01120000 	tsteq	r2, r0
 608:	01134901 	tsteq	r3, r1, lsl #18
 60c:	13000013 	movwne	r0, #19
 610:	13490021 	movtne	r0, #36897	; 0x9021
 614:	00000b2f 	andeq	r0, r0, pc, lsr #22
 618:	01011514 	tsteq	r1, r4, lsl r5
 61c:	15000013 	strne	r0, [r0, #-19]
 620:	0b0b000f 	bleq	2c0664 <_start-0x3fd4799c>
 624:	00001349 	andeq	r1, r0, r9, asr #6
 628:	03003416 	movweq	r3, #1046	; 0x416
 62c:	3b0b3a0e 	blcc	2cee6c <_start-0x3fd39194>
 630:	3f13490b 	svccc	0x0013490b
 634:	000c3c0c 	andeq	r3, ip, ip, lsl #24
 638:	00341700 	eorseq	r1, r4, r0, lsl #14
 63c:	0b3a0e03 	bleq	e83e50 <_start-0x3f1841b0>
 640:	13490b3b 	movtne	r0, #39739	; 0x9b3b
 644:	0a020c3f 	beq	83748 <_start-0x3ff848b8>
 648:	Address 0x00000648 is out of bounds.


Disassembly of section .debug_aranges:

00000000 <.debug_aranges>:
   0:	0000001c 	andeq	r0, r0, ip, lsl r0
   4:	00000002 	andeq	r0, r0, r2
   8:	00040000 	andeq	r0, r4, r0
   c:	00000000 	andeq	r0, r0, r0
  10:	40008000 	andmi	r8, r0, r0
  14:	000000f8 	strdeq	r0, [r0], -r8
	...
  20:	0000001c 	andeq	r0, r0, ip, lsl r0
  24:	00530002 	subseq	r0, r3, r2
  28:	00040000 	andeq	r0, r4, r0
  2c:	00000000 	andeq	r0, r0, r0
  30:	40008100 	andmi	r8, r0, r0, lsl #2
  34:	00000094 	muleq	r0, r4, r0
	...
  40:	0000001c 	andeq	r0, r0, ip, lsl r0
  44:	00ae0002 	adceq	r0, lr, r2
  48:	00040000 	andeq	r0, r4, r0
  4c:	00000000 	andeq	r0, r0, r0
  50:	40008194 	mulmi	r0, r4, r1
  54:	000000b0 	strheq	r0, [r0], -r0	; <UNPREDICTABLE>
	...
  60:	0000001c 	andeq	r0, r0, ip, lsl r0
  64:	01090002 	tsteq	r9, r2
  68:	00040000 	andeq	r0, r4, r0
  6c:	00000000 	andeq	r0, r0, r0
  70:	40008244 	andmi	r8, r0, r4, asr #4
  74:	000011f4 	strdeq	r1, [r0], -r4
	...
  80:	0000001c 	andeq	r0, r0, ip, lsl r0
  84:	05cb0002 	strbeq	r0, [fp, #2]
  88:	00040000 	andeq	r0, r4, r0
  8c:	00000000 	andeq	r0, r0, r0
  90:	40009438 	andmi	r9, r0, r8, lsr r4
  94:	0000010c 	andeq	r0, r0, ip, lsl #2
	...
  a0:	0000001c 	andeq	r0, r0, ip, lsl r0
  a4:	07dc0002 	ldrbeq	r0, [ip, r2]
  a8:	00040000 	andeq	r0, r4, r0
  ac:	00000000 	andeq	r0, r0, r0
  b0:	40009544 	andmi	r9, r0, r4, asr #10
  b4:	00000158 	andeq	r0, r0, r8, asr r1
	...
  c0:	0000001c 	andeq	r0, r0, ip, lsl r0
  c4:	0a4d0002 	beq	13400d4 <_start-0x3ecc7f2c>
  c8:	00040000 	andeq	r0, r4, r0
  cc:	00000000 	andeq	r0, r0, r0
  d0:	4000969c 	mulmi	r0, ip, r6
  d4:	00000380 	andeq	r0, r0, r0, lsl #7
	...
  e0:	0000001c 	andeq	r0, r0, ip, lsl r0
  e4:	0fa40002 	svceq	0x00a40002
  e8:	00040000 	andeq	r0, r4, r0
  ec:	00000000 	andeq	r0, r0, r0
  f0:	40009a1c 	andmi	r9, r0, ip, lsl sl
  f4:	000003ec 	andeq	r0, r0, ip, ror #7
	...
 100:	0000001c 	andeq	r0, r0, ip, lsl r0
 104:	13360002 	teqne	r6, #2
 108:	00040000 	andeq	r0, r4, r0
 10c:	00000000 	andeq	r0, r0, r0
 110:	40009e08 	andmi	r9, r0, r8, lsl #28
 114:	000002bc 			; <UNDEFINED> instruction: 0x000002bc
	...

Disassembly of section .debug_loc:

00000000 <.debug_loc>:
   0:	00000000 	andeq	r0, r0, r0
   4:	00000004 	andeq	r0, r0, r4
   8:	007d0002 	rsbseq	r0, sp, r2
   c:	00000004 	andeq	r0, r0, r4
  10:	00000008 	andeq	r0, r0, r8
  14:	047d0002 	ldrbteq	r0, [sp], #-2
  18:	00000008 	andeq	r0, r0, r8
  1c:	00000050 	andeq	r0, r0, r0, asr r0
  20:	047b0002 	ldrbteq	r0, [fp], #-2
	...
  2c:	00000050 	andeq	r0, r0, r0, asr r0
  30:	00000054 	andeq	r0, r0, r4, asr r0
  34:	007d0002 	rsbseq	r0, sp, r2
  38:	00000054 	andeq	r0, r0, r4, asr r0
  3c:	00000058 	andeq	r0, r0, r8, asr r0
  40:	087d0002 	ldmdaeq	sp!, {r1}^
  44:	00000058 	andeq	r0, r0, r8, asr r0
  48:	000001f8 	strdeq	r0, [r0], -r8
  4c:	047b0002 	ldrbteq	r0, [fp], #-2
	...
  58:	000001f8 	strdeq	r0, [r0], -r8
  5c:	000001fc 	strdeq	r0, [r0], -ip
  60:	007d0002 	rsbseq	r0, sp, r2
  64:	000001fc 	strdeq	r0, [r0], -ip
  68:	00000200 	andeq	r0, r0, r0, lsl #4
  6c:	087d0002 	ldmdaeq	sp!, {r1}^
  70:	00000200 	andeq	r0, r0, r0, lsl #4
  74:	00000268 	andeq	r0, r0, r8, ror #4
  78:	047b0002 	ldrbteq	r0, [fp], #-2
	...
  84:	00000268 	andeq	r0, r0, r8, ror #4
  88:	0000026c 	andeq	r0, r0, ip, ror #4
  8c:	007d0002 	rsbseq	r0, sp, r2
  90:	0000026c 	andeq	r0, r0, ip, ror #4
  94:	00000270 	andeq	r0, r0, r0, ror r2
  98:	047d0002 	ldrbteq	r0, [sp], #-2
  9c:	00000270 	andeq	r0, r0, r0, ror r2
  a0:	000002fc 	strdeq	r0, [r0], -ip
  a4:	047b0002 	ldrbteq	r0, [fp], #-2
	...
  b0:	000002fc 	strdeq	r0, [r0], -ip
  b4:	00000300 	andeq	r0, r0, r0, lsl #6
  b8:	007d0002 	rsbseq	r0, sp, r2
  bc:	00000300 	andeq	r0, r0, r0, lsl #6
  c0:	00000304 	andeq	r0, r0, r4, lsl #6
  c4:	087d0002 	ldmdaeq	sp!, {r1}^
  c8:	00000304 	andeq	r0, r0, r4, lsl #6
  cc:	00000794 	muleq	r0, r4, r7
  d0:	047b0002 	ldrbteq	r0, [fp], #-2
	...
  dc:	00000794 	muleq	r0, r4, r7
  e0:	00000798 	muleq	r0, r8, r7
  e4:	007d0002 	rsbseq	r0, sp, r2
  e8:	00000798 	muleq	r0, r8, r7
  ec:	0000079c 	muleq	r0, ip, r7
  f0:	047d0002 	ldrbteq	r0, [sp], #-2
  f4:	0000079c 	muleq	r0, ip, r7
  f8:	00000814 	andeq	r0, r0, r4, lsl r8
  fc:	047b0002 	ldrbteq	r0, [fp], #-2
	...
 108:	00000814 	andeq	r0, r0, r4, lsl r8
 10c:	00000818 	andeq	r0, r0, r8, lsl r8
 110:	007d0002 	rsbseq	r0, sp, r2
 114:	00000818 	andeq	r0, r0, r8, lsl r8
 118:	0000081c 	andeq	r0, r0, ip, lsl r8
 11c:	087d0002 	ldmdaeq	sp!, {r1}^
 120:	0000081c 	andeq	r0, r0, ip, lsl r8
 124:	0000114c 	andeq	r1, r0, ip, asr #2
 128:	047b0002 	ldrbteq	r0, [fp], #-2
	...
 134:	0000114c 	andeq	r1, r0, ip, asr #2
 138:	00001150 	andeq	r1, r0, r0, asr r1
 13c:	007d0002 	rsbseq	r0, sp, r2
 140:	00001150 	andeq	r1, r0, r0, asr r1
 144:	00001154 	andeq	r1, r0, r4, asr r1
 148:	0c7d0002 	ldcleq	0, cr0, [sp], #-8
 14c:	00001154 	andeq	r1, r0, r4, asr r1
 150:	00001158 	andeq	r1, r0, r8, asr r1
 154:	147d0002 	ldrbtne	r0, [sp], #-2
 158:	00001158 	andeq	r1, r0, r8, asr r1
 15c:	0000119c 	muleq	r0, ip, r1
 160:	107b0002 	rsbsne	r0, fp, r2
	...
 16c:	0000119c 	muleq	r0, ip, r1
 170:	000011a0 	andeq	r1, r0, r0, lsr #3
 174:	007d0002 	rsbseq	r0, sp, r2
 178:	000011a0 	andeq	r1, r0, r0, lsr #3
 17c:	000011a4 	andeq	r1, r0, r4, lsr #3
 180:	107d0002 	rsbsne	r0, sp, r2
 184:	000011a4 	andeq	r1, r0, r4, lsr #3
 188:	000011a8 	andeq	r1, r0, r8, lsr #3
 18c:	187d0002 	ldmdane	sp!, {r1}^
 190:	000011a8 	andeq	r1, r0, r8, lsr #3
 194:	000011f4 	strdeq	r1, [r0], -r4
 198:	147b0002 	ldrbtne	r0, [fp], #-2
	...
 1a8:	00000004 	andeq	r0, r0, r4
 1ac:	007d0002 	rsbseq	r0, sp, r2
 1b0:	00000004 	andeq	r0, r0, r4
 1b4:	00000008 	andeq	r0, r0, r8
 1b8:	047d0002 	ldrbteq	r0, [sp], #-2
 1bc:	00000008 	andeq	r0, r0, r8
 1c0:	00000064 	andeq	r0, r0, r4, rrx
 1c4:	047b0002 	ldrbteq	r0, [fp], #-2
	...
 1d0:	00000064 	andeq	r0, r0, r4, rrx
 1d4:	00000068 	andeq	r0, r0, r8, rrx
 1d8:	007d0002 	rsbseq	r0, sp, r2
 1dc:	00000068 	andeq	r0, r0, r8, rrx
 1e0:	0000006c 	andeq	r0, r0, ip, rrx
 1e4:	087d0002 	ldmdaeq	sp!, {r1}^
 1e8:	0000006c 	andeq	r0, r0, ip, rrx
 1ec:	000000c0 	andeq	r0, r0, r0, asr #1
 1f0:	047b0002 	ldrbteq	r0, [fp], #-2
	...
 1fc:	000000c0 	andeq	r0, r0, r0, asr #1
 200:	000000c4 	andeq	r0, r0, r4, asr #1
 204:	007d0002 	rsbseq	r0, sp, r2
 208:	000000c4 	andeq	r0, r0, r4, asr #1
 20c:	000000c8 	andeq	r0, r0, r8, asr #1
 210:	087d0002 	ldmdaeq	sp!, {r1}^
 214:	000000c8 	andeq	r0, r0, r8, asr #1
 218:	0000010c 	andeq	r0, r0, ip, lsl #2
 21c:	047b0002 	ldrbteq	r0, [fp], #-2
	...
 22c:	00000004 	andeq	r0, r0, r4
 230:	007d0002 	rsbseq	r0, sp, r2
 234:	00000004 	andeq	r0, r0, r4
 238:	00000008 	andeq	r0, r0, r8
 23c:	047d0002 	ldrbteq	r0, [sp], #-2
 240:	00000008 	andeq	r0, r0, r8
 244:	00000044 	andeq	r0, r0, r4, asr #32
 248:	047b0002 	ldrbteq	r0, [fp], #-2
	...
 254:	00000044 	andeq	r0, r0, r4, asr #32
 258:	00000048 	andeq	r0, r0, r8, asr #32
 25c:	007d0002 	rsbseq	r0, sp, r2
 260:	00000048 	andeq	r0, r0, r8, asr #32
 264:	0000004c 	andeq	r0, r0, ip, asr #32
 268:	047d0002 	ldrbteq	r0, [sp], #-2
 26c:	0000004c 	andeq	r0, r0, ip, asr #32
 270:	000000e0 	andeq	r0, r0, r0, ror #1
 274:	047b0002 	ldrbteq	r0, [fp], #-2
	...
 280:	000000e0 	andeq	r0, r0, r0, ror #1
 284:	000000e4 	andeq	r0, r0, r4, ror #1
 288:	007d0002 	rsbseq	r0, sp, r2
 28c:	000000e4 	andeq	r0, r0, r4, ror #1
 290:	000000e8 	andeq	r0, r0, r8, ror #1
 294:	087d0002 	ldmdaeq	sp!, {r1}^
 298:	000000e8 	andeq	r0, r0, r8, ror #1
 29c:	00000114 	andeq	r0, r0, r4, lsl r1
 2a0:	047b0002 	ldrbteq	r0, [fp], #-2
	...
 2ac:	00000114 	andeq	r0, r0, r4, lsl r1
 2b0:	00000118 	andeq	r0, r0, r8, lsl r1
 2b4:	007d0002 	rsbseq	r0, sp, r2
 2b8:	00000118 	andeq	r0, r0, r8, lsl r1
 2bc:	0000011c 	andeq	r0, r0, ip, lsl r1
 2c0:	047d0002 	ldrbteq	r0, [sp], #-2
 2c4:	0000011c 	andeq	r0, r0, ip, lsl r1
 2c8:	00000158 	andeq	r0, r0, r8, asr r1
 2cc:	047b0002 	ldrbteq	r0, [fp], #-2
	...
 2dc:	00000004 	andeq	r0, r0, r4
 2e0:	007d0002 	rsbseq	r0, sp, r2
 2e4:	00000004 	andeq	r0, r0, r4
 2e8:	00000008 	andeq	r0, r0, r8
 2ec:	087d0002 	ldmdaeq	sp!, {r1}^
 2f0:	00000008 	andeq	r0, r0, r8
 2f4:	00000040 	andeq	r0, r0, r0, asr #32
 2f8:	047b0002 	ldrbteq	r0, [fp], #-2
	...
 304:	00000040 	andeq	r0, r0, r0, asr #32
 308:	00000044 	andeq	r0, r0, r4, asr #32
 30c:	007d0002 	rsbseq	r0, sp, r2
 310:	00000044 	andeq	r0, r0, r4, asr #32
 314:	00000048 	andeq	r0, r0, r8, asr #32
 318:	087d0002 	ldmdaeq	sp!, {r1}^
 31c:	00000048 	andeq	r0, r0, r8, asr #32
 320:	00000080 	andeq	r0, r0, r0, lsl #1
 324:	047b0002 	ldrbteq	r0, [fp], #-2
	...
 330:	00000080 	andeq	r0, r0, r0, lsl #1
 334:	00000084 	andeq	r0, r0, r4, lsl #1
 338:	007d0002 	rsbseq	r0, sp, r2
 33c:	00000084 	andeq	r0, r0, r4, lsl #1
 340:	00000088 	andeq	r0, r0, r8, lsl #1
 344:	087d0002 	ldmdaeq	sp!, {r1}^
 348:	00000088 	andeq	r0, r0, r8, lsl #1
 34c:	00000234 	andeq	r0, r0, r4, lsr r2
 350:	047b0002 	ldrbteq	r0, [fp], #-2
	...
 35c:	00000234 	andeq	r0, r0, r4, lsr r2
 360:	00000238 	andeq	r0, r0, r8, lsr r2
 364:	007d0002 	rsbseq	r0, sp, r2
 368:	00000238 	andeq	r0, r0, r8, lsr r2
 36c:	0000023c 	andeq	r0, r0, ip, lsr r2
 370:	087d0002 	ldmdaeq	sp!, {r1}^
 374:	0000023c 	andeq	r0, r0, ip, lsr r2
 378:	00000288 	andeq	r0, r0, r8, lsl #5
 37c:	047b0002 	ldrbteq	r0, [fp], #-2
	...
 388:	00000288 	andeq	r0, r0, r8, lsl #5
 38c:	0000028c 	andeq	r0, r0, ip, lsl #5
 390:	007d0002 	rsbseq	r0, sp, r2
 394:	0000028c 	andeq	r0, r0, ip, lsl #5
 398:	00000290 	muleq	r0, r0, r2
 39c:	087d0002 	ldmdaeq	sp!, {r1}^
 3a0:	00000290 	muleq	r0, r0, r2
 3a4:	00000380 	andeq	r0, r0, r0, lsl #7
 3a8:	047b0002 	ldrbteq	r0, [fp], #-2
	...
 3b8:	00000004 	andeq	r0, r0, r4
 3bc:	007d0002 	rsbseq	r0, sp, r2
 3c0:	00000004 	andeq	r0, r0, r4
 3c4:	00000008 	andeq	r0, r0, r8
 3c8:	047d0002 	ldrbteq	r0, [sp], #-2
 3cc:	00000008 	andeq	r0, r0, r8
 3d0:	00000098 	muleq	r0, r8, r0
 3d4:	047b0002 	ldrbteq	r0, [fp], #-2
	...
 3e0:	00000098 	muleq	r0, r8, r0
 3e4:	0000009c 	muleq	r0, ip, r0
 3e8:	007d0002 	rsbseq	r0, sp, r2
 3ec:	0000009c 	muleq	r0, ip, r0
 3f0:	000000a0 	andeq	r0, r0, r0, lsr #1
 3f4:	047d0002 	ldrbteq	r0, [sp], #-2
 3f8:	000000a0 	andeq	r0, r0, r0, lsr #1
 3fc:	00000128 	andeq	r0, r0, r8, lsr #2
 400:	047b0002 	ldrbteq	r0, [fp], #-2
	...
 40c:	00000128 	andeq	r0, r0, r8, lsr #2
 410:	0000012c 	andeq	r0, r0, ip, lsr #2
 414:	007d0002 	rsbseq	r0, sp, r2
 418:	0000012c 	andeq	r0, r0, ip, lsr #2
 41c:	00000130 	andeq	r0, r0, r0, lsr r1
 420:	087d0002 	ldmdaeq	sp!, {r1}^
 424:	00000130 	andeq	r0, r0, r0, lsr r1
 428:	000001ac 	andeq	r0, r0, ip, lsr #3
 42c:	047b0002 	ldrbteq	r0, [fp], #-2
	...
 438:	000001ac 	andeq	r0, r0, ip, lsr #3
 43c:	000001b0 			; <UNDEFINED> instruction: 0x000001b0
 440:	007d0002 	rsbseq	r0, sp, r2
 444:	000001b0 			; <UNDEFINED> instruction: 0x000001b0
 448:	000001b4 			; <UNDEFINED> instruction: 0x000001b4
 44c:	087d0002 	ldmdaeq	sp!, {r1}^
 450:	000001b4 			; <UNDEFINED> instruction: 0x000001b4
 454:	00000218 	andeq	r0, r0, r8, lsl r2
 458:	047b0002 	ldrbteq	r0, [fp], #-2
	...
 464:	00000218 	andeq	r0, r0, r8, lsl r2
 468:	0000021c 	andeq	r0, r0, ip, lsl r2
 46c:	007d0002 	rsbseq	r0, sp, r2
 470:	0000021c 	andeq	r0, r0, ip, lsl r2
 474:	00000220 	andeq	r0, r0, r0, lsr #4
 478:	087d0002 	ldmdaeq	sp!, {r1}^
 47c:	00000220 	andeq	r0, r0, r0, lsr #4
 480:	000003ec 	andeq	r0, r0, ip, ror #7
 484:	047b0002 	ldrbteq	r0, [fp], #-2
	...
 494:	00000004 	andeq	r0, r0, r4
 498:	007d0002 	rsbseq	r0, sp, r2
 49c:	00000004 	andeq	r0, r0, r4
 4a0:	00000008 	andeq	r0, r0, r8
 4a4:	087d0002 	ldmdaeq	sp!, {r1}^
 4a8:	00000008 	andeq	r0, r0, r8
 4ac:	0000015c 	andeq	r0, r0, ip, asr r1
 4b0:	047b0002 	ldrbteq	r0, [fp], #-2
	...
 4bc:	0000015c 	andeq	r0, r0, ip, asr r1
 4c0:	00000160 	andeq	r0, r0, r0, ror #2
 4c4:	007d0002 	rsbseq	r0, sp, r2
 4c8:	00000160 	andeq	r0, r0, r0, ror #2
 4cc:	00000164 	andeq	r0, r0, r4, ror #2
 4d0:	047d0002 	ldrbteq	r0, [sp], #-2
 4d4:	00000164 	andeq	r0, r0, r4, ror #2
 4d8:	000001e4 	andeq	r0, r0, r4, ror #3
 4dc:	047b0002 	ldrbteq	r0, [fp], #-2
	...
 4e8:	000001e4 	andeq	r0, r0, r4, ror #3
 4ec:	000001e8 	andeq	r0, r0, r8, ror #3
 4f0:	007d0002 	rsbseq	r0, sp, r2
 4f4:	000001e8 	andeq	r0, r0, r8, ror #3
 4f8:	000001ec 	andeq	r0, r0, ip, ror #3
 4fc:	047d0002 	ldrbteq	r0, [sp], #-2
 500:	000001ec 	andeq	r0, r0, ip, ror #3
 504:	000002bc 			; <UNDEFINED> instruction: 0x000002bc
 508:	047b0002 	ldrbteq	r0, [fp], #-2
	...

Disassembly of section .debug_str:

00000000 <.debug_str>:
   0:	75625f5f 	strbvc	r5, [r2, #-3935]!	; 0xf5f
   4:	69746c69 	ldmdbvs	r4!, {r0, r3, r5, r6, sl, fp, sp, lr}^
   8:	61765f6e 	cmnvs	r6, lr, ror #30
   c:	73696c5f 	cmnvc	r9, #24320	; 0x5f00
  10:	69730074 	ldmdbvs	r3!, {r2, r4, r5, r6}^
  14:	656c706d 	strbvs	r7, [ip, #-109]!	; 0x6d
  18:	7274735f 	rsbsvc	r7, r4, #2080374785	; 0x7c000001
  1c:	6c756f74 	ldclvs	15, cr6, [r5], #-464	; 0xfffffe30
  20:	6c617600 	stclvs	6, cr7, [r1]
  24:	63006575 	movwvs	r6, #1397	; 0x575
  28:	746e756f 	strbtvc	r7, [lr], #-1391	; 0x56f
  2c:	696b7300 	stmdbvs	fp!, {r8, r9, ip, sp, lr}^
  30:	74615f70 	strbtvc	r5, [r1], #-3952	; 0xf70
  34:	5f00696f 	svcpl	0x0000696f
  38:	756f745f 	strbvc	r7, [pc, #-1119]!	; fffffbe1 <key_number+0xbfff4de1>
  3c:	72657070 	rsbvc	r7, r5, #112	; 0x70
  40:	675f5f00 	ldrbvs	r5, [pc, -r0, lsl #30]
  44:	5f63756e 	svcpl	0x0063756e
  48:	6c5f6176 	ldfvse	f6, [pc], {118}	; 0x76
  4c:	00747369 	rsbseq	r7, r4, r9, ror #6
  50:	63657270 	cmnvs	r5, #7
  54:	6f697369 	svcvs	0x00697369
  58:	6e75006e 	cdpvs	0, 7, cr0, cr5, cr14, {3}
  5c:	6e676973 	mcrvs	9, 3, r6, cr7, cr3, {3}
  60:	63206465 	teqvs	r0, #1694498816	; 0x65000000
  64:	00726168 	rsbseq	r6, r2, r8, ror #2
  68:	65736162 	ldrbvs	r6, [r3, #-354]!	; 0x162
  6c:	554e4700 	strbpl	r4, [lr, #-1792]	; 0x700
  70:	34204320 	strtcc	r4, [r0], #-800	; 0x320
  74:	322e362e 	eorcc	r3, lr, #48234496	; 0x2e00000
  78:	6e6f6c00 	cdpvs	12, 6, cr6, cr15, cr0, {0}
  7c:	6e752067 	cdpvs	0, 7, cr2, cr5, cr7, {3}
  80:	6e676973 	mcrvs	9, 3, r6, cr7, cr3, {3}
  84:	69206465 	stmdbvs	r0!, {r0, r2, r5, r6, sl, sp, lr}
  88:	7300746e 	movwvc	r7, #1134	; 0x46e
  8c:	6c706d69 	ldclvs	13, cr6, [r0], #-420	; 0xfffffe5c
  90:	74735f65 	ldrbtvc	r5, [r3], #-3941	; 0xf65
  94:	6c6f7472 	cfstrdvs	mvd7, [pc], #-456	; fffffed4 <key_number+0xbfff50d4>
  98:	6d6f6300 	stclvs	3, cr6, [pc]	; a0 <_start-0x40007f60>
  9c:	2f6e6f6d 	svccs	0x006e6f6d
  a0:	2f637273 	svccs	0x00637273
  a4:	6e697270 	mcrvs	2, 3, r7, cr9, cr0, {3}
  a8:	632e6674 	teqvs	lr, #121634816	; 0x7400000
  ac:	616c6600 	cmnvs	ip, r0, lsl #12
  b0:	71007367 	tstvc	r0, r7, ror #6
  b4:	696c6175 	stmdbvs	ip!, {r0, r2, r4, r5, r6, r8, sp, lr}^
  b8:	72656966 	rsbvc	r6, r5, #1671168	; 0x198000
  bc:	73657200 	cmnvc	r5, #0
  c0:	00746c75 	rsbseq	r6, r4, r5, ror ip
  c4:	65706572 	ldrbvs	r6, [r0, #-1394]!	; 0x572
  c8:	73007461 	movwvc	r7, #1121	; 0x461
  cc:	6c6e7274 	sfmvs	f7, 2, [lr], #-464	; 0xfffffe30
  d0:	65006e65 	strvs	r6, [r0, #-3685]	; 0xe65
  d4:	0070646e 	rsbseq	r6, r0, lr, ror #8
  d8:	6d5c3a46 	vldrvs	s7, [ip, #-280]	; 0xfffffee8
  dc:	63655f79 	cmnvs	r5, #484	; 0x1e4
  e0:	7370696c 	cmnvc	r0, #1769472	; 0x1b0000
  e4:	72705f65 	rsbsvc	r5, r0, #404	; 0x194
  e8:	63656a6f 	cmnvs	r5, #454656	; 0x6f000
  ec:	65745c74 	ldrbvs	r5, [r4, #-3188]!	; 0xc74
  f0:	695f7473 	ldmdbvs	pc, {r0, r1, r4, r5, r6, sl, ip, sp, lr}^	; <UNPREDICTABLE>
  f4:	5f00746e 	svcpl	0x0000746e
  f8:	70797463 	rsbsvc	r7, r9, r3, ror #8
  fc:	69640065 	stmdbvs	r4!, {r0, r2, r5, r6}^
 100:	73746967 	cmnvc	r4, #1687552	; 0x19c000
 104:	69727000 	ldmdbvs	r2!, {ip, sp, lr}^
 108:	7562746e 	strbvc	r7, [r2, #-1134]!	; 0x46e
 10c:	72656666 	rsbvc	r6, r5, #106954752	; 0x6600000
 110:	65696600 	strbvs	r6, [r9, #-1536]!	; 0x600
 114:	775f646c 	ldrbvc	r6, [pc, -ip, ror #8]
 118:	68746469 	ldmdavs	r4!, {r0, r3, r5, r6, sl, sp, lr}^
 11c:	67726100 	ldrbvs	r6, [r2, -r0, lsl #2]!
 120:	6f6c0073 	svcvs	0x006c0073
 124:	6920676e 	stmdbvs	r0!, {r1, r2, r3, r5, r6, r8, r9, sl, sp, lr}
 128:	7300746e 	movwvc	r7, #1134	; 0x46e
 12c:	006e6769 	rsbeq	r6, lr, r9, ror #14
 130:	65725f5f 	ldrbvs	r5, [r2, #-3935]!	; 0xf5f
 134:	69730073 	ldmdbvs	r3!, {r0, r1, r4, r5, r6}^
 138:	7600657a 			; <UNDEFINED> instruction: 0x7600657a
 13c:	69727073 	ldmdbvs	r2!, {r0, r1, r4, r5, r6, ip, sp, lr}^
 140:	0066746e 	rsbeq	r7, r6, lr, ror #8
 144:	74726175 	ldrbtvc	r6, [r2], #-373	; 0x175
 148:	49550032 	ldmdbmi	r5, {r1, r4, r5}^
 14c:	3250544e 	subscc	r5, r0, #1308622848	; 0x4e000000
 150:	4e495500 	cdpmi	5, 4, cr5, cr9, cr0, {0}
 154:	32505354 	subscc	r5, r0, #1342177281	; 0x50000001
 158:	52425500 	subpl	r5, r2, #0
 15c:	32564944 	subscc	r4, r6, #1114112	; 0x110000
 160:	74737000 	ldrbtvc	r7, [r3]
 164:	46550072 			; <UNDEFINED> instruction: 0x46550072
 168:	54415453 	strbpl	r5, [r1], #-1107	; 0x453
 16c:	54550032 	ldrbpl	r0, [r5], #-50	; 0x32
 170:	41545352 	cmpmi	r4, r2, asr r3
 174:	75003254 	strvc	r3, [r0, #-596]	; 0x254
 178:	5f747261 	svcpl	0x00747261
 17c:	74696e69 	strbtvc	r6, [r9], #-3689	; 0xe69
 180:	74616400 	strbtvc	r6, [r1], #-1024	; 0x400
 184:	46550061 	ldrbmi	r0, [r5], -r1, rrx
 188:	324e4f43 	subcc	r4, lr, #268	; 0x10c
 18c:	58545500 	ldmdapl	r4, {r8, sl, ip, lr}^
 190:	43003248 	movwmi	r3, #584	; 0x248
 194:	44504e4f 	ldrbmi	r4, [r0], #-3663	; 0xe4f
 198:	4355004e 	cmpmi	r5, #78	; 0x4e
 19c:	00324e4f 	eorseq	r4, r2, pc, asr #28
 1a0:	54534d55 	ldrbpl	r4, [r3], #-3413	; 0xd55
 1a4:	00325441 	eorseq	r5, r2, r1, asr #8
 1a8:	544e4955 	strbpl	r4, [lr], #-2389	; 0x955
 1ac:	5500324d 	strpl	r3, [r0, #-589]	; 0x24d
 1b0:	4e4f434c 	cdpmi	3, 4, cr4, cr15, cr12, {2}
 1b4:	70670032 	rsbvc	r0, r7, r2, lsr r0
 1b8:	70003161 	andvc	r3, r0, r1, ror #2
 1bc:	00637475 	rsbeq	r7, r3, r5, ror r4
 1c0:	53524555 	cmppl	r2, #356515840	; 0x15400000
 1c4:	32544154 	subscc	r4, r4, #21
 1c8:	44555000 	ldrbmi	r5, [r5]
 1cc:	004e4450 	subeq	r4, lr, r0, asr r4
 1d0:	6d6d6f63 	stclvs	15, cr6, [sp, #-396]!	; 0xfffffe74
 1d4:	732f6e6f 	teqvc	pc, #1776	; 0x6f0
 1d8:	752f6372 	strvc	r6, [pc, #-882]!	; fffffe6e <key_number+0xbfff506e>
 1dc:	2e747261 	cdpcs	2, 7, cr7, cr4, cr1, {3}
 1e0:	75700063 	ldrbvc	r0, [r0, #-99]!	; 0x63
 1e4:	55007374 	strpl	r7, [r0, #-884]	; 0x374
 1e8:	4e4f434d 	cdpmi	3, 4, cr4, cr15, cr13, {2}
 1ec:	52550032 	subspl	r0, r5, #50	; 0x32
 1f0:	00324858 	eorseq	r4, r2, r8, asr r8
 1f4:	41524655 	cmpmi	r2, r5, asr r6
 1f8:	4c415643 	mcrrmi	6, 4, r5, r1, cr3
 1fc:	65620032 	strbvs	r0, [r2, #-50]!	; 0x32
 200:	632e7065 	teqvs	lr, #101	; 0x65
 204:	4e435400 	cdpmi	4, 4, cr5, cr3, cr0, {0}
 208:	00314254 	eorseq	r4, r1, r4, asr r2
 20c:	504d4354 	subpl	r4, sp, r4, asr r3
 210:	79003042 	stmdbvc	r0, {r1, r6, ip, sp}
 214:	696a6e69 	stmdbvs	sl!, {r0, r3, r5, r6, r9, sl, fp, sp, lr}^
 218:	70670065 	rsbvc	r0, r7, r5, rrx
 21c:	54003064 	strpl	r3, [r0], #-100	; 0x64
 220:	42504d43 	subsmi	r4, r0, #4288	; 0x10c0
 224:	43540031 	cmpmi	r4, #49	; 0x31
 228:	3242504d 	subcc	r5, r2, #77	; 0x4d
 22c:	4d435400 	cfstrdmi	mvd5, [r3]
 230:	00334250 	eorseq	r4, r3, r0, asr r2
 234:	70656562 	rsbvc	r6, r5, r2, ror #10
 238:	6f68735f 	svcvs	0x0068735f
 23c:	62007472 	andvs	r7, r0, #1912602624	; 0x72000000
 240:	5f706565 	svcpl	0x00706565
 244:	0066666f 	rsbeq	r6, r6, pc, ror #12
 248:	70656562 	rsbvc	r6, r5, r2, ror #10
 24c:	006e6f5f 	rsbeq	r6, lr, pc, asr pc
 250:	544e4354 	strbpl	r4, [lr], #-852	; 0x354
 254:	54003242 	strpl	r3, [r0], #-578	; 0x242
 258:	42544e43 	subsmi	r4, r4, #1072	; 0x430
 25c:	43540033 	cmpmi	r4, #51	; 0x33
 260:	00304746 	eorseq	r4, r0, r6, asr #14
 264:	47464354 	smlsldmi	r4, r6, r4, r3
 268:	65620031 	strbvs	r0, [r2, #-49]!	; 0x31
 26c:	695f7065 	ldmdbvs	pc, {r0, r2, r5, r6, ip, sp, lr}^	; <UNPREDICTABLE>
 270:	0074696e 	rsbseq	r6, r4, lr, ror #18
 274:	4e4f4354 	mcrmi	3, 2, r4, cr15, cr4, {2}
 278:	4e435400 	cdpmi	4, 4, cr5, cr3, cr0, {0}
 27c:	00304f54 	eorseq	r4, r0, r4, asr pc
 280:	544e4354 	strbpl	r4, [lr], #-852	; 0x354
 284:	5400314f 	strpl	r3, [r0], #-335	; 0x14f
 288:	4f544e43 	svcmi	0x00544e43
 28c:	43540032 	cmpmi	r4, #50	; 0x32
 290:	334f544e 	movtcc	r5, #62542	; 0xf44e
 294:	4e435400 	cdpmi	4, 4, cr5, cr3, cr0, {0}
 298:	00344f54 	eorseq	r4, r4, r4, asr pc
 29c:	544e4954 	strbpl	r4, [lr], #-2388	; 0x954
 2a0:	5453435f 	ldrbpl	r4, [r3], #-863	; 0x35f
 2a4:	54005441 	strpl	r5, [r0], #-1089	; 0x441
 2a8:	42544e43 	subsmi	r4, r4, #1072	; 0x430
 2ac:	43540030 	cmpmi	r4, #48	; 0x30
 2b0:	3442544e 	strbcc	r5, [r2], #-1102	; 0x44e
 2b4:	44434900 	strbmi	r4, [r3], #-2304	; 0x900
 2b8:	52504349 	subspl	r4, r0, #603979777	; 0x24000001
 2bc:	50435f30 	subpl	r5, r3, r0, lsr pc
 2c0:	49003055 	stmdbmi	r0, {r0, r2, r4, r6, ip, sp}
 2c4:	5245544e 	subpl	r5, r5, #1308622848	; 0x4e000000
 2c8:	54505552 	ldrbpl	r5, [r0], #-1362	; 0x552
 2cc:	54554f5f 	ldrbpl	r4, [r5], #-3935	; 0xf5f
 2d0:	79656b00 	stmdbvc	r5!, {r8, r9, fp, sp, lr}^
 2d4:	6e695f33 	mcrvs	15, 3, r5, cr9, cr3, {1}
 2d8:	69650074 	stmdbvs	r5!, {r2, r4, r5, r6}^
 2dc:	3631746e 	ldrtcc	r7, [r1], -lr, ror #8
 2e0:	5f31335f 	svcpl	0x0031335f
 2e4:	00746e69 	rsbseq	r6, r4, r9, ror #28
 2e8:	5f79656b 	svcpl	0x0079656b
 2ec:	74696e69 	strbtvc	r6, [r9], #-3689	; 0xe69
 2f0:	6e756600 	cdpvs	6, 7, cr6, cr5, cr0, {0}
 2f4:	4900705f 	stmdbmi	r0, {r0, r1, r2, r3, r4, r6, ip, sp, lr}
 2f8:	4f454343 	svcmi	0x00454343
 2fc:	49005249 	stmdbmi	r0, {r0, r3, r6, r9, ip, lr}
 300:	50424343 	subpl	r4, r2, r3, asr #6
 304:	656b0052 	strbvs	r0, [fp, #-82]!	; 0x52
 308:	695f3479 	ldmdbvs	pc, {r0, r3, r4, r5, r6, sl, ip, sp}^	; <UNPREDICTABLE>
 30c:	0074696e 	rsbseq	r6, r4, lr, ror #18
 310:	49444349 	stmdbmi	r4, {r0, r3, r6, r8, r9, lr}^
 314:	33525450 	cmpcc	r2, #1342177280	; 0x50000000
 318:	43490038 	movtmi	r0, #36920	; 0x9038
 31c:	54504944 	ldrbpl	r4, [r0], #-2372	; 0x944
 320:	00303152 	eorseq	r3, r0, r2, asr r1
 324:	49444349 	stmdbmi	r4, {r0, r3, r6, r8, r9, lr}^
 328:	31525450 	cmpcc	r2, r0, asr r4
 32c:	43490031 	movtmi	r0, #36913	; 0x9031
 330:	54504944 	ldrbpl	r4, [r0], #-2372	; 0x944
 334:	00323152 	eorseq	r3, r2, r2, asr r1
 338:	49444349 	stmdbmi	r4, {r0, r3, r6, r8, r9, lr}^
 33c:	31525450 	cmpcc	r2, r0, asr r4
 340:	43490033 	movtmi	r0, #36915	; 0x9033
 344:	54504944 	ldrbpl	r4, [r0], #-2372	; 0x944
 348:	00343152 	eorseq	r3, r4, r2, asr r1
 34c:	49444349 	stmdbmi	r4, {r0, r3, r6, r8, r9, lr}^
 350:	31525450 	cmpcc	r2, r0, asr r4
 354:	43490035 	movtmi	r0, #36917	; 0x9035
 358:	54504944 	ldrbpl	r4, [r0], #-2372	; 0x944
 35c:	00363152 	eorseq	r3, r6, r2, asr r1
 360:	49444349 	stmdbmi	r4, {r0, r3, r6, r8, r9, lr}^
 364:	31525450 	cmpcc	r2, r0, asr r4
 368:	43490037 	movtmi	r0, #36919	; 0x9037
 36c:	54504944 	ldrbpl	r4, [r0], #-2372	; 0x944
 370:	00383152 	eorseq	r3, r8, r2, asr r1
 374:	49444349 	stmdbmi	r4, {r0, r3, r6, r8, r9, lr}^
 378:	31525450 	cmpcc	r2, r0, asr r4
 37c:	43490039 	movtmi	r0, #36921	; 0x9039
 380:	54504944 	ldrbpl	r4, [r0], #-2372	; 0x944
 384:	435f3752 	cmpmi	pc, #21495808	; 0x1480000
 388:	00305550 	eorseq	r5, r0, r0, asr r5
 38c:	45544e49 	ldrbmi	r4, [r4, #-3657]	; 0xe49
 390:	4e455f47 	cdpmi	15, 4, cr5, cr5, cr7, {2}
 394:	44434900 	strbmi	r4, [r3], #-2304	; 0x900
 398:	52545049 	subspl	r5, r4, #73	; 0x49
 39c:	50435f35 	subpl	r5, r3, r5, lsr pc
 3a0:	49003055 	stmdbmi	r0, {r0, r2, r4, r6, ip, sp}
 3a4:	50494443 	subpl	r4, r9, r3, asr #8
 3a8:	00385254 	eorseq	r5, r8, r4, asr r2
 3ac:	49444349 	stmdbmi	r4, {r0, r3, r6, r8, r9, lr}^
 3b0:	39525450 	ldmdbcc	r2, {r4, r6, sl, ip, lr}^
 3b4:	43434900 	movtmi	r4, #14592	; 0x3900
 3b8:	00524149 	subseq	r4, r2, r9, asr #2
 3bc:	2e79656b 	cdpcs	5, 7, cr6, cr9, cr11, {3}
 3c0:	43490063 	movtmi	r0, #36963	; 0x9063
 3c4:	50434944 	subpl	r4, r3, r4, asr #18
 3c8:	49003152 	stmdbmi	r0, {r1, r4, r6, r8, ip, sp}
 3cc:	43494443 	movtmi	r4, #37955	; 0x9443
 3d0:	00325250 	eorseq	r5, r2, r0, asr r2
 3d4:	49444349 	stmdbmi	r4, {r0, r3, r6, r8, r9, lr}^
 3d8:	33525043 	cmpcc	r2, #67	; 0x43
 3dc:	44434900 	strbmi	r4, [r3], #-2304	; 0x900
 3e0:	52504349 	subspl	r4, r0, #603979777	; 0x24000001
 3e4:	43490034 	movtmi	r0, #36916	; 0x9034
 3e8:	54504944 	ldrbpl	r4, [r0], #-2372	; 0x944
 3ec:	00323252 	eorseq	r3, r2, r2, asr r2
 3f0:	49444349 	stmdbmi	r4, {r0, r3, r6, r8, r9, lr}^
 3f4:	32525450 	subscc	r5, r2, #1342177280	; 0x50000000
 3f8:	43490030 	movtmi	r0, #36912	; 0x9030
 3fc:	54504944 	ldrbpl	r4, [r0], #-2372	; 0x944
 400:	00313252 	eorseq	r3, r1, r2, asr r2
 404:	41434349 	cmpmi	r3, r9, asr #6
 408:	00525042 	subseq	r5, r2, r2, asr #32
 40c:	49444349 	stmdbmi	r4, {r0, r3, r6, r8, r9, lr}^
 410:	32525450 	subscc	r5, r2, #1342177280	; 0x50000000
 414:	43490033 	movtmi	r0, #36915	; 0x9033
 418:	54504944 	ldrbpl	r4, [r0], #-2372	; 0x944
 41c:	00343252 	eorseq	r3, r4, r2, asr r2
 420:	49444349 	stmdbmi	r4, {r0, r3, r6, r8, r9, lr}^
 424:	32525450 	subscc	r5, r2, #1342177280	; 0x50000000
 428:	43490035 	movtmi	r0, #36917	; 0x9035
 42c:	54504944 	ldrbpl	r4, [r0], #-2372	; 0x944
 430:	00363252 	eorseq	r3, r6, r2, asr r2
 434:	49444349 	stmdbmi	r4, {r0, r3, r6, r8, r9, lr}^
 438:	32525450 	subscc	r5, r2, #1342177280	; 0x50000000
 43c:	43490037 	movtmi	r0, #36919	; 0x9037
 440:	54504944 	ldrbpl	r4, [r0], #-2372	; 0x944
 444:	00383252 	eorseq	r3, r8, r2, asr r2
 448:	49444349 	stmdbmi	r4, {r0, r3, r6, r8, r9, lr}^
 44c:	32525450 	subscc	r5, r2, #1342177280	; 0x50000000
 450:	43490039 	movtmi	r0, #36921	; 0x9039
 454:	54504944 	ldrbpl	r4, [r0], #-2372	; 0x944
 458:	435f3252 	cmpmi	pc, #536870917	; 0x20000005
 45c:	00305550 	eorseq	r5, r0, r0, asr r5
 460:	31787067 	cmncc	r8, r7, rrx
 464:	78706700 	ldmdavc	r0!, {r8, r9, sl, sp, lr}^
 468:	43490033 	movtmi	r0, #36915	; 0x9033
 46c:	54504944 	ldrbpl	r4, [r0], #-2372	; 0x944
 470:	435f3352 	cmpmi	pc, #1207959553	; 0x48000001
 474:	00305550 	eorseq	r5, r0, r0, asr r5
 478:	72706369 	rsbsvc	r6, r0, #-1543503871	; 0xa4000001
 47c:	74706900 	ldrbtvc	r6, [r0], #-2304	; 0x900
 480:	43490072 	movtmi	r0, #36978	; 0x9072
 484:	45534944 	ldrbmi	r4, [r3, #-2372]	; 0x944
 488:	6b003452 	blvs	d5d8 <_start-0x3fffaa28>
 48c:	5f327965 	svcpl	0x00327965
 490:	00746e69 	rsbseq	r6, r4, r9, ror #28
 494:	49444349 	stmdbmi	r4, {r0, r3, r6, r8, r9, lr}^
 498:	34525450 	ldrbcc	r5, [r2], #-1104	; 0x450
 49c:	5550435f 	ldrbpl	r4, [r0, #-863]	; 0x35f
 4a0:	43490030 	movtmi	r0, #36912	; 0x9030
 4a4:	52505243 	subspl	r5, r0, #805306372	; 0x30000004
 4a8:	75706300 	ldrbvc	r6, [r0, #-768]!	; 0x300
 4ac:	43490030 	movtmi	r0, #36912	; 0x9030
 4b0:	54504944 	ldrbpl	r4, [r0], #-2372	; 0x944
 4b4:	00303352 	eorseq	r3, r0, r2, asr r3
 4b8:	50434349 	subpl	r4, r3, r9, asr #6
 4bc:	4900524d 	stmdbmi	r0, {r0, r2, r3, r6, r9, ip, lr}
 4c0:	50494443 	subpl	r4, r9, r3, asr #8
 4c4:	32335254 	eorscc	r5, r3, #1073741829	; 0x40000005
 4c8:	44434900 	strbmi	r4, [r3], #-2304	; 0x900
 4cc:	52545049 	subspl	r5, r4, #73	; 0x49
 4d0:	49003333 	stmdbmi	r0, {r0, r1, r4, r5, r8, r9, ip, sp}
 4d4:	50494443 	subpl	r4, r9, r3, asr #8
 4d8:	34335254 	ldrtcc	r5, [r3], #-596	; 0x254
 4dc:	44434900 	strbmi	r4, [r3], #-2304	; 0x900
 4e0:	52545049 	subspl	r5, r4, #73	; 0x49
 4e4:	49003533 	stmdbmi	r0, {r0, r1, r4, r5, r8, sl, ip, sp}
 4e8:	50494443 	subpl	r4, r9, r3, asr #8
 4ec:	36335254 			; <UNDEFINED> instruction: 0x36335254
 4f0:	44434900 	strbmi	r4, [r3], #-2304	; 0x900
 4f4:	52545049 	subspl	r5, r4, #73	; 0x49
 4f8:	49003733 	stmdbmi	r0, {r0, r1, r4, r5, r8, r9, sl, ip, sp}
 4fc:	53494443 	movtpl	r4, #37955	; 0x9443
 500:	5f305245 	svcpl	0x00305245
 504:	30555043 	subscc	r5, r5, r3, asr #32
 508:	44434900 	strbmi	r4, [r3], #-2304	; 0x900
 50c:	52545049 	subspl	r5, r4, #73	; 0x49
 510:	49003933 	stmdbmi	r0, {r0, r1, r4, r5, r8, fp, ip, sp}
 514:	50494443 	subpl	r4, r9, r3, asr #8
 518:	5f365254 	svcpl	0x00365254
 51c:	30555043 	subscc	r5, r5, r3, asr #32
 520:	44434900 	strbmi	r4, [r3], #-2304	; 0x900
 524:	52455349 	subpl	r5, r5, #603979777	; 0x24000001
 528:	43490031 	movtmi	r0, #36913	; 0x9031
 52c:	45534944 	ldrbmi	r4, [r3, #-2372]	; 0x944
 530:	49003252 	stmdbmi	r0, {r1, r4, r6, r9, ip, sp}
 534:	53494443 	movtpl	r4, #37955	; 0x9443
 538:	00335245 	eorseq	r5, r3, r5, asr #4
 53c:	48434349 	stmdami	r3, {r0, r3, r6, r8, r9, lr}^
 540:	00524950 	subseq	r4, r2, r0, asr r9
 544:	49444349 	stmdbmi	r4, {r0, r3, r6, r8, r9, lr}^
 548:	30525450 	subscc	r5, r2, r0, asr r4
 54c:	5550435f 	ldrbpl	r4, [r0, #-863]	; 0x35f
 550:	43490030 	movtmi	r0, #36912	; 0x9030
 554:	54504944 	ldrbpl	r4, [r0], #-2372	; 0x944
 558:	435f3152 	cmpmi	pc, #-2147483628	; 0x80000014
 55c:	00305550 	eorseq	r5, r0, r0, asr r5
 560:	49434349 	stmdbmi	r3, {r0, r3, r6, r8, r9, lr}^
 564:	69005243 	stmdbvs	r0, {r0, r1, r6, r9, ip, lr}
 568:	00726573 	rsbseq	r6, r2, r3, ror r5
 56c:	49444349 	stmdbmi	r4, {r0, r3, r6, r8, r9, lr}^
 570:	33525450 	cmpcc	r2, #1342177280	; 0x50000000
 574:	796d0031 	stmdbvc	sp!, {r0, r4, r5}^
 578:	616c6564 	cmnvs	ip, r4, ror #10
 57c:	736d5f79 	cmnvc	sp, #484	; 0x1e4
 580:	66706700 	ldrbtvs	r6, [r0], -r0, lsl #14
 584:	6f640033 	svcvs	0x00640033
 588:	7172695f 	cmnvc	r2, pc, asr r9
 58c:	69616d00 	stmdbvs	r1!, {r8, sl, fp, sp, lr}^
 590:	796d006e 	stmdbvc	sp!, {r1, r2, r3, r5, r6}^
 594:	616c6564 	cmnvs	ip, r4, ror #10
 598:	30315f79 	eorscc	r5, r1, r9, ror pc
 59c:	69007375 	stmdbvs	r0, {r0, r2, r4, r5, r6, r8, r9, ip, sp, lr}
 5a0:	6e5f7172 	mrcvs	1, 2, r7, cr15, cr2, {3}
 5a4:	65626d75 	strbvs	r6, [r2, #-3445]!	; 0xd75
 5a8:	616d0072 	smcvs	53250	; 0xd002
 5ac:	632e6e69 	teqvs	lr, #1680	; 0x690
 5b0:	75696c00 	strbvc	r6, [r9, #-3072]!	; 0xc00
 5b4:	69756873 	ldmdbvs	r5!, {r0, r1, r4, r5, r6, fp, sp, lr}^
 5b8:	676e6564 	strbvs	r6, [lr, -r4, ror #10]!
 5bc:	78706700 	ldmdavc	r0!, {r8, r9, sl, sp, lr}^
 5c0:	656b0032 	strbvs	r0, [fp, #-50]!	; 0x32
 5c4:	756e5f79 	strbvc	r5, [lr, #-3961]!	; 0xf79
 5c8:	7265626d 	rsbvc	r6, r5, #-805306362	; 0xd0000006
 5cc:	6d697400 	cfstrdvs	mvd7, [r9]
 5d0:	5f347265 	svcpl	0x00347265
 5d4:	72617473 	rsbvc	r7, r1, #1929379840	; 0x73000000
 5d8:	69740074 	ldmdbvs	r4!, {r2, r4, r5, r6}^
 5dc:	3472656d 	ldrbtcc	r6, [r2], #-1389	; 0x56d
 5e0:	746e695f 	strbtvc	r6, [lr], #-2399	; 0x95f
 5e4:	6d697400 	cfstrdvs	mvd7, [r9]
 5e8:	632e7265 	teqvs	lr, #1342177286	; 0x50000006
 5ec:	6d697400 	cfstrdvs	mvd7, [r9]
 5f0:	5f347265 	svcpl	0x00347265
 5f4:	6e65706f 	cdpvs	0, 6, cr7, cr5, cr15, {3}
	...

Disassembly of section .debug_frame:

00000000 <.debug_frame>:
   0:	0000000c 	andeq	r0, r0, ip
   4:	ffffffff 			; <UNDEFINED> instruction: 0xffffffff
   8:	7c020001 	stcvc	0, cr0, [r2], {1}
   c:	000d0c0e 	andeq	r0, sp, lr, lsl #24
  10:	00000014 	andeq	r0, r0, r4, lsl r0
  14:	00000000 	andeq	r0, r0, r0
  18:	40008244 	andmi	r8, r0, r4, asr #4
  1c:	00000050 	andeq	r0, r0, r0, asr r0
  20:	8b040e42 	blhi	103930 <_start-0x3ff046d0>
  24:	0b0d4201 	bleq	350830 <_start-0x3fcb77d0>
  28:	00000018 	andeq	r0, r0, r8, lsl r0
  2c:	00000000 	andeq	r0, r0, r0
  30:	40008294 	mulmi	r0, r4, r2
  34:	000001a8 	andeq	r0, r0, r8, lsr #3
  38:	8e080e42 	cdphi	14, 0, cr0, cr8, cr2, {2}
  3c:	42028b01 	andmi	r8, r2, #1024	; 0x400
  40:	00040b0c 	andeq	r0, r4, ip, lsl #22
  44:	00000018 	andeq	r0, r0, r8, lsl r0
  48:	00000000 	andeq	r0, r0, r0
  4c:	4000843c 	andmi	r8, r0, ip, lsr r4
  50:	00000070 	andeq	r0, r0, r0, ror r0
  54:	8e080e42 	cdphi	14, 0, cr0, cr8, cr2, {2}
  58:	42028b01 	andmi	r8, r2, #1024	; 0x400
  5c:	00040b0c 	andeq	r0, r4, ip, lsl #22
  60:	00000014 	andeq	r0, r0, r4, lsl r0
  64:	00000000 	andeq	r0, r0, r0
  68:	400084ac 	andmi	r8, r0, ip, lsr #9
  6c:	00000094 	muleq	r0, r4, r0
  70:	8b040e42 	blhi	103980 <_start-0x3ff04680>
  74:	0b0d4201 	bleq	350880 <_start-0x3fcb7780>
  78:	00000018 	andeq	r0, r0, r8, lsl r0
  7c:	00000000 	andeq	r0, r0, r0
  80:	40008540 	andmi	r8, r0, r0, asr #10
  84:	00000498 	muleq	r0, r8, r4
  88:	8e080e42 	cdphi	14, 0, cr0, cr8, cr2, {2}
  8c:	42028b01 	andmi	r8, r2, #1024	; 0x400
  90:	00040b0c 	andeq	r0, r4, ip, lsl #22
  94:	00000014 	andeq	r0, r0, r4, lsl r0
  98:	00000000 	andeq	r0, r0, r0
  9c:	400089d8 	ldrdmi	r8, [r0], -r8	; <UNPREDICTABLE>
  a0:	00000080 	andeq	r0, r0, r0, lsl #1
  a4:	8b040e42 	blhi	1039b4 <_start-0x3ff0464c>
  a8:	0b0d4201 	bleq	3508b4 <_start-0x3fcb774c>
  ac:	00000018 	andeq	r0, r0, r8, lsl r0
  b0:	00000000 	andeq	r0, r0, r0
  b4:	40008a58 	andmi	r8, r0, r8, asr sl
  b8:	00000938 	andeq	r0, r0, r8, lsr r9
  bc:	8e080e42 	cdphi	14, 0, cr0, cr8, cr2, {2}
  c0:	42028b01 	andmi	r8, r2, #1024	; 0x400
  c4:	00040b0c 	andeq	r0, r4, ip, lsl #22
  c8:	00000020 	andeq	r0, r0, r0, lsr #32
  cc:	00000000 	andeq	r0, r0, r0
  d0:	40009390 	mulmi	r0, r0, r3
  d4:	00000050 	andeq	r0, r0, r0, asr r0
  d8:	830c0e42 	movwhi	r0, #52802	; 0xce42
  dc:	81028201 	tsthi	r2, r1, lsl #4
  e0:	140e4203 	strne	r4, [lr], #-515	; 0x203
  e4:	058b048e 	streq	r0, [fp, #1166]	; 0x48e
  e8:	100b0c42 	andne	r0, fp, r2, asr #24
  ec:	00000024 	andeq	r0, r0, r4, lsr #32
  f0:	00000000 	andeq	r0, r0, r0
  f4:	400093e0 	andmi	r9, r0, r0, ror #7
  f8:	00000058 	andeq	r0, r0, r8, asr r0
  fc:	83100e42 	tsthi	r0, #1056	; 0x420
 100:	81028201 	tsthi	r2, r1, lsl #4
 104:	42048003 	andmi	r8, r4, #3
 108:	058e180e 	streq	r1, [lr, #2062]	; 0x80e
 10c:	0c42068b 	mcrreq	6, 8, r0, r2, cr11
 110:	0000140b 	andeq	r1, r0, fp, lsl #8
 114:	0000000c 	andeq	r0, r0, ip
 118:	ffffffff 			; <UNDEFINED> instruction: 0xffffffff
 11c:	7c020001 	stcvc	0, cr0, [r2], {1}
 120:	000d0c0e 	andeq	r0, sp, lr, lsl #24
 124:	00000014 	andeq	r0, r0, r4, lsl r0
 128:	00000114 	andeq	r0, r0, r4, lsl r1
 12c:	40009438 	andmi	r9, r0, r8, lsr r4
 130:	00000064 	andeq	r0, r0, r4, rrx
 134:	8b040e42 	blhi	103a44 <_start-0x3ff045bc>
 138:	0b0d4201 	bleq	350944 <_start-0x3fcb76bc>
 13c:	00000018 	andeq	r0, r0, r8, lsl r0
 140:	00000114 	andeq	r0, r0, r4, lsl r1
 144:	4000949c 	mulmi	r0, ip, r4
 148:	0000005c 	andeq	r0, r0, ip, asr r0
 14c:	8e080e42 	cdphi	14, 0, cr0, cr8, cr2, {2}
 150:	42028b01 	andmi	r8, r2, #1024	; 0x400
 154:	00040b0c 	andeq	r0, r4, ip, lsl #22
 158:	00000018 	andeq	r0, r0, r8, lsl r0
 15c:	00000114 	andeq	r0, r0, r4, lsl r1
 160:	400094f8 	strdmi	r9, [r0], -r8
 164:	0000004c 	andeq	r0, r0, ip, asr #32
 168:	8e080e42 	cdphi	14, 0, cr0, cr8, cr2, {2}
 16c:	42028b01 	andmi	r8, r2, #1024	; 0x400
 170:	00040b0c 	andeq	r0, r4, ip, lsl #22
 174:	0000000c 	andeq	r0, r0, ip
 178:	ffffffff 			; <UNDEFINED> instruction: 0xffffffff
 17c:	7c020001 	stcvc	0, cr0, [r2], {1}
 180:	000d0c0e 	andeq	r0, sp, lr, lsl #24
 184:	00000014 	andeq	r0, r0, r4, lsl r0
 188:	00000174 	andeq	r0, r0, r4, ror r1
 18c:	40009544 	andmi	r9, r0, r4, asr #10
 190:	00000044 	andeq	r0, r0, r4, asr #32
 194:	8b040e42 	blhi	103aa4 <_start-0x3ff0455c>
 198:	0b0d4201 	bleq	3509a4 <_start-0x3fcb765c>
 19c:	00000014 	andeq	r0, r0, r4, lsl r0
 1a0:	00000174 	andeq	r0, r0, r4, ror r1
 1a4:	40009588 	andmi	r9, r0, r8, lsl #11
 1a8:	0000009c 	muleq	r0, ip, r0
 1ac:	8b040e42 	blhi	103abc <_start-0x3ff04544>
 1b0:	0b0d4201 	bleq	3509bc <_start-0x3fcb7644>
 1b4:	00000018 	andeq	r0, r0, r8, lsl r0
 1b8:	00000174 	andeq	r0, r0, r4, ror r1
 1bc:	40009624 	andmi	r9, r0, r4, lsr #12
 1c0:	00000034 	andeq	r0, r0, r4, lsr r0
 1c4:	8e080e42 	cdphi	14, 0, cr0, cr8, cr2, {2}
 1c8:	42028b01 	andmi	r8, r2, #1024	; 0x400
 1cc:	00040b0c 	andeq	r0, r4, ip, lsl #22
 1d0:	00000014 	andeq	r0, r0, r4, lsl r0
 1d4:	00000174 	andeq	r0, r0, r4, ror r1
 1d8:	40009658 	andmi	r9, r0, r8, asr r6
 1dc:	00000044 	andeq	r0, r0, r4, asr #32
 1e0:	8b040e42 	blhi	103af0 <_start-0x3ff04510>
 1e4:	0b0d4201 	bleq	3509f0 <_start-0x3fcb7610>
 1e8:	0000000c 	andeq	r0, r0, ip
 1ec:	ffffffff 			; <UNDEFINED> instruction: 0xffffffff
 1f0:	7c020001 	stcvc	0, cr0, [r2], {1}
 1f4:	000d0c0e 	andeq	r0, sp, lr, lsl #24
 1f8:	00000018 	andeq	r0, r0, r8, lsl r0
 1fc:	000001e8 	andeq	r0, r0, r8, ror #3
 200:	4000969c 	mulmi	r0, ip, r6
 204:	00000040 	andeq	r0, r0, r0, asr #32
 208:	8e080e42 	cdphi	14, 0, cr0, cr8, cr2, {2}
 20c:	42028b01 	andmi	r8, r2, #1024	; 0x400
 210:	00040b0c 	andeq	r0, r4, ip, lsl #22
 214:	00000018 	andeq	r0, r0, r8, lsl r0
 218:	000001e8 	andeq	r0, r0, r8, ror #3
 21c:	400096dc 	ldrdmi	r9, [r0], -ip
 220:	00000040 	andeq	r0, r0, r0, asr #32
 224:	8e080e42 	cdphi	14, 0, cr0, cr8, cr2, {2}
 228:	42028b01 	andmi	r8, r2, #1024	; 0x400
 22c:	00040b0c 	andeq	r0, r4, ip, lsl #22
 230:	00000018 	andeq	r0, r0, r8, lsl r0
 234:	000001e8 	andeq	r0, r0, r8, ror #3
 238:	4000971c 	andmi	r9, r0, ip, lsl r7
 23c:	000001b4 			; <UNDEFINED> instruction: 0x000001b4
 240:	8e080e42 	cdphi	14, 0, cr0, cr8, cr2, {2}
 244:	42028b01 	andmi	r8, r2, #1024	; 0x400
 248:	00040b0c 	andeq	r0, r4, ip, lsl #22
 24c:	00000018 	andeq	r0, r0, r8, lsl r0
 250:	000001e8 	andeq	r0, r0, r8, ror #3
 254:	400098d0 	ldrdmi	r9, [r0], -r0
 258:	00000054 	andeq	r0, r0, r4, asr r0
 25c:	8e080e42 	cdphi	14, 0, cr0, cr8, cr2, {2}
 260:	42028b01 	andmi	r8, r2, #1024	; 0x400
 264:	00040b0c 	andeq	r0, r4, ip, lsl #22
 268:	00000018 	andeq	r0, r0, r8, lsl r0
 26c:	000001e8 	andeq	r0, r0, r8, ror #3
 270:	40009924 	andmi	r9, r0, r4, lsr #18
 274:	000000f8 	strdeq	r0, [r0], -r8
 278:	8e080e42 	cdphi	14, 0, cr0, cr8, cr2, {2}
 27c:	42028b01 	andmi	r8, r2, #1024	; 0x400
 280:	00040b0c 	andeq	r0, r4, ip, lsl #22
 284:	0000000c 	andeq	r0, r0, ip
 288:	ffffffff 			; <UNDEFINED> instruction: 0xffffffff
 28c:	7c020001 	stcvc	0, cr0, [r2], {1}
 290:	000d0c0e 	andeq	r0, sp, lr, lsl #24
 294:	00000014 	andeq	r0, r0, r4, lsl r0
 298:	00000284 	andeq	r0, r0, r4, lsl #5
 29c:	40009a1c 	andmi	r9, r0, ip, lsl sl
 2a0:	00000098 	muleq	r0, r8, r0
 2a4:	8b040e42 	blhi	103bb4 <_start-0x3ff0444c>
 2a8:	0b0d4201 	bleq	350ab4 <_start-0x3fcb754c>
 2ac:	00000014 	andeq	r0, r0, r4, lsl r0
 2b0:	00000284 	andeq	r0, r0, r4, lsl #5
 2b4:	40009ab4 			; <UNDEFINED> instruction: 0x40009ab4
 2b8:	00000090 	muleq	r0, r0, r0
 2bc:	8b040e42 	blhi	103bcc <_start-0x3ff04434>
 2c0:	0b0d4201 	bleq	350acc <_start-0x3fcb7534>
 2c4:	00000018 	andeq	r0, r0, r8, lsl r0
 2c8:	00000284 	andeq	r0, r0, r4, lsl #5
 2cc:	40009b44 	andmi	r9, r0, r4, asr #22
 2d0:	00000084 	andeq	r0, r0, r4, lsl #1
 2d4:	8e080e42 	cdphi	14, 0, cr0, cr8, cr2, {2}
 2d8:	42028b01 	andmi	r8, r2, #1024	; 0x400
 2dc:	00040b0c 	andeq	r0, r4, ip, lsl #22
 2e0:	00000018 	andeq	r0, r0, r8, lsl r0
 2e4:	00000284 	andeq	r0, r0, r4, lsl #5
 2e8:	40009bc8 	andmi	r9, r0, r8, asr #23
 2ec:	0000006c 	andeq	r0, r0, ip, rrx
 2f0:	8e080e42 	cdphi	14, 0, cr0, cr8, cr2, {2}
 2f4:	42028b01 	andmi	r8, r2, #1024	; 0x400
 2f8:	00040b0c 	andeq	r0, r4, ip, lsl #22
 2fc:	00000018 	andeq	r0, r0, r8, lsl r0
 300:	00000284 	andeq	r0, r0, r4, lsl #5
 304:	40009c34 	andmi	r9, r0, r4, lsr ip
 308:	000001d4 	ldrdeq	r0, [r0], -r4
 30c:	8e080e42 	cdphi	14, 0, cr0, cr8, cr2, {2}
 310:	42028b01 	andmi	r8, r2, #1024	; 0x400
 314:	00040b0c 	andeq	r0, r4, ip, lsl #22
 318:	0000000c 	andeq	r0, r0, ip
 31c:	ffffffff 			; <UNDEFINED> instruction: 0xffffffff
 320:	7c020001 	stcvc	0, cr0, [r2], {1}
 324:	000d0c0e 	andeq	r0, sp, lr, lsl #24
 328:	00000018 	andeq	r0, r0, r8, lsl r0
 32c:	00000318 	andeq	r0, r0, r8, lsl r3
 330:	40009e08 	andmi	r9, r0, r8, lsl #28
 334:	0000015c 	andeq	r0, r0, ip, asr r1
 338:	8e080e42 	cdphi	14, 0, cr0, cr8, cr2, {2}
 33c:	42028b01 	andmi	r8, r2, #1024	; 0x400
 340:	00040b0c 	andeq	r0, r4, ip, lsl #22
 344:	00000014 	andeq	r0, r0, r4, lsl r0
 348:	00000318 	andeq	r0, r0, r8, lsl r3
 34c:	40009f64 	andmi	r9, r0, r4, ror #30
 350:	00000088 	andeq	r0, r0, r8, lsl #1
 354:	8b040e42 	blhi	103c64 <_start-0x3ff0439c>
 358:	0b0d4201 	bleq	350b64 <_start-0x3fcb749c>
 35c:	00000014 	andeq	r0, r0, r4, lsl r0
 360:	00000318 	andeq	r0, r0, r8, lsl r3
 364:	40009fec 	andmi	r9, r0, ip, ror #31
 368:	000000d8 	ldrdeq	r0, [r0], -r8
 36c:	8b040e42 	blhi	103c7c <_start-0x3ff04384>
 370:	0b0d4201 	bleq	350b7c <_start-0x3fcb7484>
